(lp0
(iclasses.towerAI
Action
p1
(dp2
S'action'
p3
S'buy'
p4
sS'tower_d_pos'
p5
(lp6
sS'tower'
p7
S'Stem Cell'
p8
sS'pos'
p9
(lp10
(I21
I1
tp11
asS'tower_d'
p12
Nsba(iclasses.towerAI
Action
p13
(dp14
g3
S'upgrade'
p15
sg5
(lp16
g11
asg7
S'Lymphocyte'
p17
sg9
(lp18
(I21
I1
tp19
asg12
g8
sba(iclasses.towerAI
Action
p20
(dp21
g3
g15
sg5
(lp22
g19
asg7
S'T-Cell'
p23
sg9
(lp24
(I20
I1
tp25
a(I21
I1
tp26
a(I20
I2
tp27
a(I21
I2
tp28
asg12
g17
sba(iclasses.towerAI
Action
p29
(dp30
g3
g4
sg5
g6
sg7
g8
sg9
(lp31
(I0
I1
tp32
asg12
Nsba(iclasses.towerAI
Action
p33
(dp34
g3
g15
sg5
(lp35
g32
asg7
g17
sg9
(lp36
(I0
I1
tp37
asg12
g8
sba(iclasses.towerAI
Action
p38
(dp39
g3
g15
sg5
(lp40
g37
asg7
g23
sg9
(lp41
(I0
I1
tp42
a(I1
I1
tp43
a(I0
I2
tp44
a(I1
I2
tp45
asg12
g17
sba(iclasses.towerAI
Action
p46
(dp47
g3
g4
sg5
g6
sg7
g8
sg9
(lp48
(I2
I1
tp49
asg12
Nsba(iclasses.towerAI
Action
p50
(dp51
g3
g4
sg5
g6
sg7
g8
sg9
(lp52
(I3
I1
tp53
asg12
Nsba(iclasses.towerAI
Action
p54
(dp55
g3
g4
sg5
g6
sg7
g8
sg9
(lp56
(I4
I1
tp57
asg12
Nsba(iclasses.towerAI
Action
p58
(dp59
g3
g4
sg5
g6
sg7
g8
sg9
(lp60
(I5
I1
tp61
asg12
Nsba(iclasses.towerAI
Action
p62
(dp63
g3
g4
sg5
g6
sg7
g8
sg9
(lp64
(I6
I1
tp65
asg12
Nsba(iclasses.towerAI
Action
p66
(dp67
g3
g4
sg5
g6
sg7
g8
sg9
(lp68
(I7
I1
tp69
asg12
Nsba(iclasses.towerAI
Action
p70
(dp71
g3
g4
sg5
g6
sg7
g8
sg9
(lp72
(I8
I1
tp73
asg12
Nsba(iclasses.towerAI
Action
p74
(dp75
g3
g4
sg5
g6
sg7
g8
sg9
(lp76
(I9
I1
tp77
asg12
Nsba(iclasses.towerAI
Action
p78
(dp79
g3
g4
sg5
g6
sg7
g8
sg9
(lp80
(I19
I1
tp81
asg12
Nsba(iclasses.towerAI
Action
p82
(dp83
g3
g4
sg5
g6
sg7
g8
sg9
(lp84
(I18
I1
tp85
asg12
Nsba(iclasses.towerAI
Action
p86
(dp87
g3
g4
sg5
g6
sg7
g8
sg9
(lp88
(I17
I1
tp89
asg12
Nsba(iclasses.towerAI
Action
p90
(dp91
g3
g4
sg5
g6
sg7
g8
sg9
(lp92
(I16
I1
tp93
asg12
Nsba(iclasses.towerAI
Action
p94
(dp95
g3
g4
sg5
g6
sg7
g8
sg9
(lp96
(I15
I1
tp97
asg12
Nsba(iclasses.towerAI
Action
p98
(dp99
g3
g15
sg5
(lp100
g81
asg7
g17
sg9
(lp101
(I19
I1
tp102
asg12
g8
sba(iclasses.towerAI
Action
p103
(dp104
g3
g15
sg5
(lp105
g85
asg7
g17
sg9
(lp106
(I18
I1
tp107
asg12
g8
sba(iclasses.towerAI
Action
p108
(dp109
g3
g15
sg5
(lp110
g89
asg7
g17
sg9
(lp111
(I17
I1
tp112
asg12
g8
sba(iclasses.towerAI
Action
p113
(dp114
g3
g15
sg5
(lp115
g93
asg7
g17
sg9
(lp116
(I16
I1
tp117
asg12
g8
sba(iclasses.towerAI
Action
p118
(dp119
g3
g15
sg5
(lp120
g97
asg7
g17
sg9
(lp121
(I15
I1
tp122
asg12
g8
sba(iclasses.towerAI
Action
p123
(dp124
g3
g15
sg5
(lp125
g49
asg7
g17
sg9
(lp126
(I2
I1
tp127
asg12
g8
sba(iclasses.towerAI
Action
p128
(dp129
g3
g15
sg5
(lp130
g53
asg7
g17
sg9
(lp131
(I3
I1
tp132
asg12
g8
sba(iclasses.towerAI
Action
p133
(dp134
g3
g15
sg5
(lp135
g57
asg7
g17
sg9
(lp136
(I4
I1
tp137
asg12
g8
sba(iclasses.towerAI
Action
p138
(dp139
g3
g15
sg5
(lp140
g61
asg7
g17
sg9
(lp141
(I5
I1
tp142
asg12
g8
sba(iclasses.towerAI
Action
p143
(dp144
g3
g15
sg5
(lp145
g65
asg7
g17
sg9
(lp146
(I6
I1
tp147
asg12
g8
sba(iclasses.towerAI
Action
p148
(dp149
g3
g15
sg5
(lp150
g69
asg7
g17
sg9
(lp151
(I7
I1
tp152
asg12
g8
sba(iclasses.towerAI
Action
p153
(dp154
g3
g15
sg5
(lp155
g73
asg7
g17
sg9
(lp156
(I8
I1
tp157
asg12
g8
sba(iclasses.towerAI
Action
p158
(dp159
g3
g4
sg5
g6
sg7
g8
sg9
(lp160
(I10
I1
tp161
asg12
Nsba(iclasses.towerAI
Action
p162
(dp163
g3
g4
sg5
g6
sg7
g8
sg9
(lp164
(I11
I1
tp165
asg12
Nsba(iclasses.towerAI
Action
p166
(dp167
g3
g4
sg5
g6
sg7
g8
sg9
(lp168
(I12
I1
tp169
asg12
Nsba(iclasses.towerAI
Action
p170
(dp171
g3
g4
sg5
g6
sg7
g8
sg9
(lp172
(I13
I1
tp173
asg12
Nsba(iclasses.towerAI
Action
p174
(dp175
g3
g4
sg5
g6
sg7
g8
sg9
(lp176
(I14
I1
tp177
asg12
Nsba(iclasses.towerAI
Action
p178
(dp179
g3
g4
sg5
g6
sg7
g8
sg9
(lp180
(I0
I3
tp181
asg12
Nsba(iclasses.towerAI
Action
p182
(dp183
g3
g4
sg5
g6
sg7
g8
sg9
(lp184
(I0
I4
tp185
asg12
Nsba(iclasses.towerAI
Action
p186
(dp187
g3
g4
sg5
g6
sg7
g8
sg9
(lp188
(I0
I5
tp189
asg12
Nsba(iclasses.towerAI
Action
p190
(dp191
g3
g4
sg5
g6
sg7
g8
sg9
(lp192
(I0
I6
tp193
asg12
Nsba(iclasses.towerAI
Action
p194
(dp195
g3
g4
sg5
g6
sg7
g8
sg9
(lp196
(I0
I7
tp197
asg12
Nsba(iclasses.towerAI
Action
p198
(dp199
g3
g4
sg5
g6
sg7
g8
sg9
(lp200
(I0
I8
tp201
asg12
Nsba(iclasses.towerAI
Action
p202
(dp203
g3
g4
sg5
g6
sg7
g8
sg9
(lp204
(I0
I9
tp205
asg12
Nsba(iclasses.towerAI
Action
p206
(dp207
g3
g4
sg5
g6
sg7
g8
sg9
(lp208
(I2
I17
tp209
asg12
Nsba(iclasses.towerAI
Action
p210
(dp211
g3
g4
sg5
g6
sg7
g8
sg9
(lp212
(I2
I16
tp213
asg12
Nsba(iclasses.towerAI
Action
p214
(dp215
g3
g4
sg5
g6
sg7
g8
sg9
(lp216
(I0
I10
tp217
asg12
Nsba(iclasses.towerAI
Action
p218
(dp219
g3
g4
sg5
g6
sg7
g8
sg9
(lp220
(I0
I11
tp221
asg12
Nsba(iclasses.towerAI
Action
p222
(dp223
g3
g4
sg5
g6
sg7
g8
sg9
(lp224
(I0
I12
tp225
asg12
Nsba(iclasses.towerAI
Action
p226
(dp227
g3
g4
sg5
g6
sg7
g8
sg9
(lp228
(I0
I14
tp229
asg12
Nsba(iclasses.towerAI
Action
p230
(dp231
g3
g4
sg5
g6
sg7
g8
sg9
(lp232
(I0
I15
tp233
asg12
Nsba(iclasses.towerAI
Action
p234
(dp235
g3
g4
sg5
g6
sg7
g8
sg9
(lp236
(I0
I16
tp237
asg12
Nsba(iclasses.towerAI
Action
p238
(dp239
g3
g4
sg5
g6
sg7
g8
sg9
(lp240
(I0
I13
tp241
asg12
Nsba(iclasses.towerAI
Action
p242
(dp243
g3
g4
sg5
g6
sg7
g8
sg9
(lp244
(I2
I15
tp245
asg12
Nsba(iclasses.towerAI
Action
p246
(dp247
g3
g15
sg5
(lp248
g77
asg7
g17
sg9
(lp249
(I9
I1
tp250
asg12
g8
sba(iclasses.towerAI
Action
p251
(dp252
g3
g15
sg5
(lp253
g161
asg7
g17
sg9
(lp254
(I10
I1
tp255
asg12
g8
sba(iclasses.towerAI
Action
p256
(dp257
g3
g15
sg5
(lp258
g165
asg7
g17
sg9
(lp259
(I11
I1
tp260
asg12
g8
sba(iclasses.towerAI
Action
p261
(dp262
g3
g15
sg5
(lp263
g169
asg7
g17
sg9
(lp264
(I12
I1
tp265
asg12
g8
sba(iclasses.towerAI
Action
p266
(dp267
g3
g15
sg5
(lp268
g173
asg7
g17
sg9
(lp269
(I13
I1
tp270
asg12
g8
sba(iclasses.towerAI
Action
p271
(dp272
g3
g15
sg5
(lp273
g177
asg7
g17
sg9
(lp274
(I14
I1
tp275
asg12
g8
sba(iclasses.towerAI
Action
p276
(dp277
g3
g15
sg5
(lp278
g209
asg7
g17
sg9
(lp279
(I2
I17
tp280
asg12
g8
sba(iclasses.towerAI
Action
p281
(dp282
g3
g15
sg5
(lp283
g213
asg7
g17
sg9
(lp284
(I2
I16
tp285
asg12
g8
sba(iclasses.towerAI
Action
p286
(dp287
g3
g15
sg5
(lp288
g245
asg7
g17
sg9
(lp289
(I2
I15
tp290
asg12
g8
sba(iclasses.towerAI
Action
p291
(dp292
g3
g15
sg5
(lp293
g237
asg7
g17
sg9
(lp294
(I0
I16
tp295
asg12
g8
sba(iclasses.towerAI
Action
p296
(dp297
g3
g15
sg5
(lp298
g233
asg7
g17
sg9
(lp299
(I0
I15
tp300
asg12
g8
sba(iclasses.towerAI
Action
p301
(dp302
g3
g4
sg5
g6
sg7
g8
sg9
(lp303
(I2
I14
tp304
asg12
Nsba(iclasses.towerAI
Action
p305
(dp306
g3
g4
sg5
g6
sg7
g8
sg9
(lp307
(I2
I13
tp308
asg12
Nsba(iclasses.towerAI
Action
p309
(dp310
g3
g4
sg5
g6
sg7
g8
sg9
(lp311
(I2
I12
tp312
asg12
Nsba(iclasses.towerAI
Action
p313
(dp314
g3
g4
sg5
g6
sg7
g8
sg9
(lp315
(I2
I11
tp316
asg12
Nsba(iclasses.towerAI
Action
p317
(dp318
g3
g4
sg5
g6
sg7
g8
sg9
(lp319
(I2
I10
tp320
asg12
Nsba(iclasses.towerAI
Action
p321
(dp322
g3
g4
sg5
g6
sg7
g8
sg9
(lp323
(I2
I9
tp324
asg12
Nsba(iclasses.towerAI
Action
p325
(dp326
g3
g4
sg5
g6
sg7
g8
sg9
(lp327
(I2
I8
tp328
asg12
Nsba(iclasses.towerAI
Action
p329
(dp330
g3
g4
sg5
g6
sg7
g8
sg9
(lp331
(I2
I7
tp332
asg12
Nsba(iclasses.towerAI
Action
p333
(dp334
g3
g4
sg5
g6
sg7
g8
sg9
(lp335
(I2
I6
tp336
asg12
Nsba(iclasses.towerAI
Action
p337
(dp338
g3
g4
sg5
g6
sg7
g8
sg9
(lp339
(I2
I5
tp340
asg12
Nsba(iclasses.towerAI
Action
p341
(dp342
g3
g4
sg5
g6
sg7
g8
sg9
(lp343
(I2
I4
tp344
asg12
Nsba(iclasses.towerAI
Action
p345
(dp346
g3
g4
sg5
g6
sg7
g8
sg9
(lp347
(I2
I3
tp348
asg12
Nsba(iclasses.towerAI
Action
p349
(dp350
g3
g4
sg5
g6
sg7
g8
sg9
(lp351
(I2
I2
tp352
asg12
Nsba(iclasses.towerAI
Action
p353
(dp354
g3
g15
sg5
(lp355
g304
asg7
g17
sg9
(lp356
(I2
I14
tp357
asg12
g8
sba(iclasses.towerAI
Action
p358
(dp359
g3
g15
sg5
(lp360
g308
asg7
g17
sg9
(lp361
(I2
I13
tp362
asg12
g8
sba(iclasses.towerAI
Action
p363
(dp364
g3
g15
sg5
(lp365
g312
asg7
g17
sg9
(lp366
(I2
I12
tp367
asg12
g8
sba(iclasses.towerAI
Action
p368
(dp369
g3
S'sell'
p370
sg5
(lp371
g316
asg7
Nsg9
Nsg12
g8
sba(iclasses.towerAI
Action
p372
(dp373
g3
g15
sg5
(lp374
g320
asg7
S'Granulocyte'
p375
sg9
(lp376
(I2
I10
tp377
asg12
g8
sba(iclasses.towerAI
Action
p378
(dp379
g3
g15
sg5
(lp380
g221
asg7
g17
sg9
(lp381
(I2
I11
tp382
asg12
g8
sba(iclasses.towerAI
Action
p383
(dp384
g3
g4
sg5
g6
sg7
g8
sg9
(lp385
(I3
I2
tp386
asg12
Nsba(iclasses.towerAI
Action
p387
(dp388
g3
g370
sg5
(lp389
g42
ag43
ag44
ag45
asg7
Nsg9
Nsg12
g23
sba(iclasses.towerAI
Action
p390
(dp391
g3
g15
sg5
(lp392
g386
asg7
g17
sg9
(lp393
(I0
I0
tp394
asg12
g8
sba(iclasses.towerAI
Action
p395
(dp396
g3
g4
sg5
g6
sg7
g8
sg9
(lp397
(I0
I1
tp398
asg12
Nsba(iclasses.towerAI
Action
p399
(dp400
g3
g4
sg5
g6
sg7
g8
sg9
(lp401
(I0
I2
tp402
asg12
Nsba(iclasses.towerAI
Action
p403
(dp404
g3
g370
sg5
(lp405
g280
asg7
Nsg9
Nsg12
g17
sba(iclasses.towerAI
Action
p406
(dp407
g3
g15
sg5
(lp408
g285
asg7
g23
sg9
(lp409
(I2
I16
tp410
a(I3
I16
tp411
a(I2
I17
tp412
a(I3
I17
tp413
asg12
g17
sba(iclasses.towerAI
Action
p414
(dp415
g3
g370
sg5
(lp416
g290
asg7
Nsg9
Nsg12
g17
sba(iclasses.towerAI
Action
p417
(dp418
g3
g370
sg5
(lp419
g357
asg7
Nsg9
Nsg12
g17
sba(iclasses.towerAI
Action
p420
(dp421
g3
g4
sg5
g6
sg7
g8
sg9
(lp422
(I2
I14
tp423
asg12
Nsba(iclasses.towerAI
Action
p424
(dp425
g3
g15
sg5
(lp426
g423
asg7
g375
sg9
(lp427
(I2
I14
tp428
asg12
g8
sba(iclasses.towerAI
Action
p429
(dp430
g3
g15
sg5
(lp431
g428
asg7
S'Neutrophil'
p432
sg9
(lp433
(I2
I14
tp434
a(I3
I14
tp435
a(I2
I15
tp436
a(I3
I15
tp437
asg12
g375
sba(iclasses.towerAI
Action
p438
(dp439
g3
g4
sg5
g6
sg7
g8
sg9
(lp440
(I0
I11
tp441
asg12
Nsba(iclasses.towerAI
Action
p442
(dp443
g3
g15
sg5
(lp444
g324
asg7
g17
sg9
(lp445
(I2
I9
tp446
asg12
g8
sba(iclasses.towerAI
Action
p447
(dp448
g3
g15
sg5
(lp449
g229
asg7
g17
sg9
(lp450
(I0
I14
tp451
asg12
g8
sba(iclasses.towerAI
Action
p452
(dp453
g3
g15
sg5
(lp454
g241
asg7
g17
sg9
(lp455
(I0
I13
tp456
asg12
g8
sba(iclasses.towerAI
Action
p457
(dp458
g3
g15
sg5
(lp459
g225
asg7
g17
sg9
(lp460
(I0
I12
tp461
asg12
g8
sba(iclasses.towerAI
Action
p462
(dp463
g3
g15
sg5
(lp464
g441
asg7
g17
sg9
(lp465
(I0
I11
tp466
asg12
g8
sba(iclasses.towerAI
Action
p467
(dp468
g3
g15
sg5
(lp469
g217
asg7
g17
sg9
(lp470
(I0
I10
tp471
asg12
g8
sba(iclasses.towerAI
Action
p472
(dp473
g3
g15
sg5
(lp474
g205
asg7
g17
sg9
(lp475
(I0
I9
tp476
asg12
g8
sba(iclasses.towerAI
Action
p477
(dp478
g3
g15
sg5
(lp479
g328
asg7
g17
sg9
(lp480
(I2
I8
tp481
asg12
g8
sba(iclasses.towerAI
Action
p482
(dp483
g3
g15
sg5
(lp484
g201
asg7
g17
sg9
(lp485
(I0
I8
tp486
asg12
g8
sba(iclasses.towerAI
Action
p487
(dp488
g3
g15
sg5
(lp489
g332
asg7
g17
sg9
(lp490
(I2
I7
tp491
asg12
g8
sba(iclasses.towerAI
Action
p492
(dp493
g3
g370
sg5
(lp494
g336
asg7
Nsg9
Nsg12
g8
sba(iclasses.towerAI
Action
p495
(dp496
g3
g15
sg5
(lp497
g340
asg7
g375
sg9
(lp498
(I2
I5
tp499
asg12
g8
sba(iclasses.towerAI
Action
p500
(dp501
g3
g15
sg5
(lp502
g499
asg7
S'Monocyte'
p503
sg9
(lp504
(I2
I5
tp505
asg12
g375
sba(iclasses.towerAI
Action
p506
(dp507
g3
g4
sg5
g6
sg7
g8
sg9
(lp508
(I2
I6
tp509
asg12
Nsba.