(lp0
(iclasses.towerAI
Action
p1
(dp2
S'action'
p3
S'buy'
p4
sS'tower_d_pos'
p5
(lp6
sS'tower'
p7
S'Stem Cell'
p8
sS'pos'
p9
(lp10
(I3
I2
tp11
asS'tower_d'
p12
Nsba(iclasses.towerAI
Action
p13
(dp14
g3
S'upgrade'
p15
sg5
(lp16
g11
asg7
S'Lymphocyte'
p17
sg9
(lp18
(I3
I2
tp19
asg12
g8
sba(iclasses.towerAI
Action
p20
(dp21
g3
g15
sg5
(lp22
g19
asg7
S'T-Cell'
p23
sg9
(lp24
(I2
I2
tp25
a(I3
I2
tp26
a(I2
I3
tp27
a(I3
I3
tp28
asg12
g17
sba(iclasses.towerAI
Action
p29
(dp30
g3
g4
sg5
g6
sg7
g8
sg9
(lp31
(I21
I0
tp32
asg12
Nsba(iclasses.towerAI
Action
p33
(dp34
g3
g4
sg5
g6
sg7
g8
sg9
(lp35
(I20
I0
tp36
asg12
Nsba(iclasses.towerAI
Action
p37
(dp38
g3
g4
sg5
g6
sg7
g8
sg9
(lp39
(I18
I0
tp40
asg12
Nsba(iclasses.towerAI
Action
p41
(dp42
g3
g4
sg5
g6
sg7
g8
sg9
(lp43
(I17
I0
tp44
asg12
Nsba(iclasses.towerAI
Action
p45
(dp46
g3
g4
sg5
g6
sg7
g8
sg9
(lp47
(I16
I0
tp48
asg12
Nsba(iclasses.towerAI
Action
p49
(dp50
g3
g4
sg5
g6
sg7
g8
sg9
(lp51
(I19
I0
tp52
asg12
Nsba(iclasses.towerAI
Action
p53
(dp54
g3
g4
sg5
g6
sg7
g8
sg9
(lp55
(I15
I0
tp56
asg12
Nsba(iclasses.towerAI
Action
p57
(dp58
g3
g4
sg5
g6
sg7
g8
sg9
(lp59
(I14
I0
tp60
asg12
Nsba(iclasses.towerAI
Action
p61
(dp62
g3
g4
sg5
g6
sg7
g8
sg9
(lp63
(I13
I0
tp64
asg12
Nsba(iclasses.towerAI
Action
p65
(dp66
g3
g4
sg5
g6
sg7
g8
sg9
(lp67
(I12
I0
tp68
asg12
Nsba(iclasses.towerAI
Action
p69
(dp70
g3
g4
sg5
g6
sg7
g8
sg9
(lp71
(I11
I0
tp72
asg12
Nsba(iclasses.towerAI
Action
p73
(dp74
g3
g4
sg5
g6
sg7
g8
sg9
(lp75
(I10
I0
tp76
asg12
Nsba(iclasses.towerAI
Action
p77
(dp78
g3
g4
sg5
g6
sg7
g8
sg9
(lp79
(I9
I0
tp80
asg12
Nsba(iclasses.towerAI
Action
p81
(dp82
g3
g4
sg5
g6
sg7
g8
sg9
(lp83
(I7
I0
tp84
asg12
Nsba(iclasses.towerAI
Action
p85
(dp86
g3
g4
sg5
g6
sg7
g8
sg9
(lp87
(I6
I0
tp88
asg12
Nsba(iclasses.towerAI
Action
p89
(dp90
g3
g4
sg5
g6
sg7
g8
sg9
(lp91
(I5
I0
tp92
asg12
Nsba(iclasses.towerAI
Action
p93
(dp94
g3
g4
sg5
g6
sg7
g8
sg9
(lp95
(I8
I0
tp96
asg12
Nsba(iclasses.towerAI
Action
p97
(dp98
g3
g4
sg5
g6
sg7
g8
sg9
(lp99
(I4
I0
tp100
asg12
Nsba(iclasses.towerAI
Action
p101
(dp102
g3
g4
sg5
g6
sg7
g8
sg9
(lp103
(I2
I0
tp104
asg12
Nsba(iclasses.towerAI
Action
p105
(dp106
g3
g4
sg5
g6
sg7
g8
sg9
(lp107
(I3
I0
tp108
asg12
Nsba(iclasses.towerAI
Action
p109
(dp110
g3
g4
sg5
g6
sg7
g8
sg9
(lp111
(I0
I0
tp112
asg12
Nsba(iclasses.towerAI
Action
p113
(dp114
g3
g4
sg5
g6
sg7
g8
sg9
(lp115
(I1
I0
tp116
asg12
Nsba(iclasses.towerAI
Action
p117
(dp118
g3
g15
sg5
(lp119
g32
asg7
S'Granulocyte'
p120
sg9
(lp121
(I21
I0
tp122
asg12
g8
sba(iclasses.towerAI
Action
p123
(dp124
g3
g15
sg5
(lp125
g36
asg7
g120
sg9
(lp126
(I20
I0
tp127
asg12
g8
sba(iclasses.towerAI
Action
p128
(dp129
g3
g15
sg5
(lp130
g52
asg7
g120
sg9
(lp131
(I19
I0
tp132
asg12
g8
sba(iclasses.towerAI
Action
p133
(dp134
g3
g15
sg5
(lp135
g40
asg7
g120
sg9
(lp136
(I18
I0
tp137
asg12
g8
sba(iclasses.towerAI
Action
p138
(dp139
g3
g15
sg5
(lp140
g48
asg7
g120
sg9
(lp141
(I16
I0
tp142
asg12
g8
sba(iclasses.towerAI
Action
p143
(dp144
g3
g15
sg5
(lp145
g44
asg7
g120
sg9
(lp146
(I17
I0
tp147
asg12
g8
sba(iclasses.towerAI
Action
p148
(dp149
g3
g15
sg5
(lp150
g56
asg7
g120
sg9
(lp151
(I15
I0
tp152
asg12
g8
sba(iclasses.towerAI
Action
p153
(dp154
g3
g15
sg5
(lp155
g60
asg7
g120
sg9
(lp156
(I14
I0
tp157
asg12
g8
sba(iclasses.towerAI
Action
p158
(dp159
g3
g15
sg5
(lp160
g64
asg7
g120
sg9
(lp161
(I13
I0
tp162
asg12
g8
sba(iclasses.towerAI
Action
p163
(dp164
g3
g15
sg5
(lp165
g68
asg7
g120
sg9
(lp166
(I12
I0
tp167
asg12
g8
sba(iclasses.towerAI
Action
p168
(dp169
g3
g15
sg5
(lp170
g72
asg7
g120
sg9
(lp171
(I11
I0
tp172
asg12
g8
sba(iclasses.towerAI
Action
p173
(dp174
g3
g15
sg5
(lp175
g76
asg7
g120
sg9
(lp176
(I10
I0
tp177
asg12
g8
sba(iclasses.towerAI
Action
p178
(dp179
g3
g15
sg5
(lp180
g80
asg7
g120
sg9
(lp181
(I9
I0
tp182
asg12
g8
sba(iclasses.towerAI
Action
p183
(dp184
g3
g15
sg5
(lp185
g96
asg7
g120
sg9
(lp186
(I8
I0
tp187
asg12
g8
sba(iclasses.towerAI
Action
p188
(dp189
g3
g15
sg5
(lp190
g84
asg7
g120
sg9
(lp191
(I7
I0
tp192
asg12
g8
sba(iclasses.towerAI
Action
p193
(dp194
g3
g15
sg5
(lp195
g88
asg7
g120
sg9
(lp196
(I6
I0
tp197
asg12
g8
sba(iclasses.towerAI
Action
p198
(dp199
g3
g15
sg5
(lp200
g92
asg7
g120
sg9
(lp201
(I5
I0
tp202
asg12
g8
sba(iclasses.towerAI
Action
p203
(dp204
g3
g15
sg5
(lp205
g100
asg7
g120
sg9
(lp206
(I4
I0
tp207
asg12
g8
sba(iclasses.towerAI
Action
p208
(dp209
g3
g15
sg5
(lp210
g108
asg7
g120
sg9
(lp211
(I3
I0
tp212
asg12
g8
sba(iclasses.towerAI
Action
p213
(dp214
g3
g15
sg5
(lp215
g104
asg7
g120
sg9
(lp216
(I2
I0
tp217
asg12
g8
sba(iclasses.towerAI
Action
p218
(dp219
g3
g15
sg5
(lp220
g116
asg7
g120
sg9
(lp221
(I1
I0
tp222
asg12
g8
sba(iclasses.towerAI
Action
p223
(dp224
g3
g15
sg5
(lp225
g112
asg7
g17
sg9
(lp226
(I19
I2
tp227
asg12
g8
sba(iclasses.towerAI
Action
p228
(dp229
g3
g15
sg5
(lp230
g227
asg7
g23
sg9
(lp231
(I18
I2
tp232
a(I19
I2
tp233
a(I18
I3
tp234
a(I19
I3
tp235
asg12
g17
sba(iclasses.towerAI
Action
p236
(dp237
g3
g4
sg5
g6
sg7
g8
sg9
(lp238
(I0
I0
tp239
asg12
Nsba(iclasses.towerAI
Action
p240
(dp241
g3
g15
sg5
(lp242
g239
asg7
g120
sg9
(lp243
(I0
I0
tp244
asg12
g8
sba(iclasses.towerAI
Action
p245
(dp246
g3
g4
sg5
g6
sg7
g8
sg9
(lp247
(I5
I2
tp248
asg12
Nsba(iclasses.towerAI
Action
p249
(dp250
g3
g15
sg5
(lp251
g248
asg7
g120
sg9
(lp252
(I6
I2
tp253
asg12
g8
sba(iclasses.towerAI
Action
p254
(dp255
g3
g4
sg5
g6
sg7
g8
sg9
(lp256
(I4
I2
tp257
asg12
Nsba(iclasses.towerAI
Action
p258
(dp259
g3
g15
sg5
(lp260
g257
asg7
g17
sg9
(lp261
(I4
I2
tp262
asg12
g8
sba(iclasses.towerAI
Action
p263
(dp264
g3
g15
sg5
(lp265
g262
asg7
S'B-Cell'
p266
sg9
(lp267
(I4
I2
tp268
a(I5
I2
tp269
a(I4
I3
tp270
a(I5
I3
tp271
asg12
g17
sba(iclasses.towerAI
Action
p272
(dp273
g3
g15
sg5
(lp274
g268
ag269
ag270
ag271
asg7
S'Plasma Cell'
p275
sg9
(lp276
(I4
I2
tp277
a(I5
I2
tp278
a(I4
I3
tp279
a(I5
I3
tp280
asg12
g266
sba(iclasses.towerAI
Action
p281
(dp282
g3
g15
sg5
(lp283
g253
asg7
S'Neutrophil'
p284
sg9
(lp285
(I6
I2
tp286
a(I7
I2
tp287
a(I6
I3
tp288
a(I7
I3
tp289
asg12
g120
sba(iclasses.towerAI
Action
p290
(dp291
g3
g4
sg5
g6
sg7
g8
sg9
(lp292
(I10
I2
tp293
asg12
Nsba(iclasses.towerAI
Action
p294
(dp295
g3
g15
sg5
(lp296
g293
asg7
g17
sg9
(lp297
(I10
I2
tp298
asg12
g8
sba(iclasses.towerAI
Action
p299
(dp300
g3
g4
sg5
g6
sg7
g8
sg9
(lp301
(I12
I2
tp302
asg12
Nsba(iclasses.towerAI
Action
p303
(dp304
g3
g15
sg5
(lp305
g302
asg7
g120
sg9
(lp306
(I12
I2
tp307
asg12
g8
sba(iclasses.towerAI
Action
p308
(dp309
g3
g4
sg5
g6
sg7
g8
sg9
(lp310
(I21
I2
tp311
asg12
Nsba(iclasses.towerAI
Action
p312
(dp313
g3
g15
sg5
(lp314
g307
asg7
g284
sg9
(lp315
(I12
I2
tp316
a(I13
I2
tp317
a(I12
I3
tp318
a(I13
I3
tp319
asg12
g120
sba(iclasses.towerAI
Action
p320
(dp321
g3
g15
sg5
(lp322
g298
asg7
g266
sg9
(lp323
(I10
I2
tp324
a(I11
I2
tp325
a(I10
I3
tp326
a(I11
I3
tp327
asg12
g17
sba(iclasses.towerAI
Action
p328
(dp329
g3
g15
sg5
(lp330
g324
ag325
ag326
ag327
asg7
g275
sg9
(lp331
(I10
I2
tp332
a(I11
I2
tp333
a(I10
I3
tp334
a(I11
I3
tp335
asg12
g266
sba(iclasses.towerAI
Action
p336
(dp337
g3
g15
sg5
(lp338
g311
asg7
g120
sg9
(lp339
(I0
I2
tp340
asg12
g8
sba(iclasses.towerAI
Action
p341
(dp342
g3
g4
sg5
g6
sg7
g8
sg9
(lp343
(I2
I17
tp344
asg12
Nsba(iclasses.towerAI
Action
p345
(dp346
g3
g4
sg5
g6
sg7
g8
sg9
(lp347
(I2
I16
tp348
asg12
Nsba(iclasses.towerAI
Action
p349
(dp350
g3
g4
sg5
g6
sg7
g8
sg9
(lp351
(I2
I15
tp352
asg12
Nsba(iclasses.towerAI
Action
p353
(dp354
g3
g4
sg5
g6
sg7
g8
sg9
(lp355
(I2
I14
tp356
asg12
Nsba(iclasses.towerAI
Action
p357
(dp358
g3
g4
sg5
g6
sg7
g8
sg9
(lp359
(I2
I12
tp360
asg12
Nsba(iclasses.towerAI
Action
p361
(dp362
g3
g4
sg5
g6
sg7
g8
sg9
(lp363
(I2
I11
tp364
asg12
Nsba(iclasses.towerAI
Action
p365
(dp366
g3
g4
sg5
g6
sg7
g8
sg9
(lp367
(I2
I9
tp368
asg12
Nsba(iclasses.towerAI
Action
p369
(dp370
g3
g4
sg5
g6
sg7
g8
sg9
(lp371
(I2
I8
tp372
asg12
Nsba(iclasses.towerAI
Action
p373
(dp374
g3
g4
sg5
g6
sg7
g8
sg9
(lp375
(I2
I6
tp376
asg12
Nsba(iclasses.towerAI
Action
p377
(dp378
g3
g4
sg5
g6
sg7
g8
sg9
(lp379
(I2
I5
tp380
asg12
Nsba(iclasses.towerAI
Action
p381
(dp382
g3
g4
sg5
g6
sg7
g8
sg9
(lp383
(I2
I13
tp384
asg12
Nsba(iclasses.towerAI
Action
p385
(dp386
g3
g4
sg5
g6
sg7
g8
sg9
(lp387
(I2
I10
tp388
asg12
Nsba(iclasses.towerAI
Action
p389
(dp390
g3
g4
sg5
g6
sg7
g8
sg9
(lp391
(I2
I7
tp392
asg12
Nsba(iclasses.towerAI
Action
p393
(dp394
g3
g4
sg5
g6
sg7
g8
sg9
(lp395
(I2
I4
tp396
asg12
Nsba(iclasses.towerAI
Action
p397
(dp398
g3
g4
sg5
g6
sg7
g8
sg9
(lp399
(I0
I3
tp400
asg12
Nsba(iclasses.towerAI
Action
p401
(dp402
g3
g4
sg5
g6
sg7
g8
sg9
(lp403
(I0
I4
tp404
asg12
Nsba(iclasses.towerAI
Action
p405
(dp406
g3
g4
sg5
g6
sg7
g8
sg9
(lp407
(I0
I5
tp408
asg12
Nsba(iclasses.towerAI
Action
p409
(dp410
g3
g4
sg5
g6
sg7
g8
sg9
(lp411
(I0
I6
tp412
asg12
Nsba(iclasses.towerAI
Action
p413
(dp414
g3
g4
sg5
g6
sg7
g8
sg9
(lp415
(I0
I7
tp416
asg12
Nsba(iclasses.towerAI
Action
p417
(dp418
g3
g4
sg5
g6
sg7
g8
sg9
(lp419
(I0
I8
tp420
asg12
Nsba(iclasses.towerAI
Action
p421
(dp422
g3
g4
sg5
g6
sg7
g8
sg9
(lp423
(I0
I9
tp424
asg12
Nsba(iclasses.towerAI
Action
p425
(dp426
g3
g4
sg5
g6
sg7
g8
sg9
(lp427
(I0
I10
tp428
asg12
Nsba(iclasses.towerAI
Action
p429
(dp430
g3
g4
sg5
g6
sg7
g8
sg9
(lp431
(I0
I11
tp432
asg12
Nsba(iclasses.towerAI
Action
p433
(dp434
g3
g4
sg5
g6
sg7
g8
sg9
(lp435
(I0
I12
tp436
asg12
Nsba(iclasses.towerAI
Action
p437
(dp438
g3
g4
sg5
g6
sg7
g8
sg9
(lp439
(I0
I13
tp440
asg12
Nsba(iclasses.towerAI
Action
p441
(dp442
g3
g4
sg5
g6
sg7
g8
sg9
(lp443
(I0
I14
tp444
asg12
Nsba(iclasses.towerAI
Action
p445
(dp446
g3
g4
sg5
g6
sg7
g8
sg9
(lp447
(I0
I15
tp448
asg12
Nsba(iclasses.towerAI
Action
p449
(dp450
g3
g4
sg5
g6
sg7
g8
sg9
(lp451
(I0
I16
tp452
asg12
Nsba(iclasses.towerAI
Action
p453
(dp454
g3
g4
sg5
g6
sg7
g8
sg9
(lp455
(I0
I1
tp456
asg12
Nsba(iclasses.towerAI
Action
p457
(dp458
g3
S'sell'
p459
sg5
(lp460
g344
asg7
Nsg9
Nsg12
g8
sba(iclasses.towerAI
Action
p461
(dp462
g3
g15
sg5
(lp463
g348
asg7
g17
sg9
(lp464
(I2
I16
tp465
asg12
g8
sba(iclasses.towerAI
Action
p466
(dp467
g3
g15
sg5
(lp468
g465
asg7
g23
sg9
(lp469
(I2
I16
tp470
a(I3
I16
tp471
a(I2
I17
tp472
a(I3
I17
tp473
asg12
g17
sba(iclasses.towerAI
Action
p474
(dp475
g3
g15
sg5
(lp476
g452
asg7
g120
sg9
(lp477
(I0
I16
tp478
asg12
g8
sba(iclasses.towerAI
Action
p479
(dp480
g3
g15
sg5
(lp481
g448
asg7
g120
sg9
(lp482
(I0
I15
tp483
asg12
g8
sba(iclasses.towerAI
Action
p484
(dp485
g3
g15
sg5
(lp486
g444
asg7
g120
sg9
(lp487
(I0
I14
tp488
asg12
g8
sba(iclasses.towerAI
Action
p489
(dp490
g3
g15
sg5
(lp491
g440
asg7
g120
sg9
(lp492
(I0
I13
tp493
asg12
g8
sba(iclasses.towerAI
Action
p494
(dp495
g3
g15
sg5
(lp496
g436
asg7
g120
sg9
(lp497
(I0
I12
tp498
asg12
g8
sba(iclasses.towerAI
Action
p499
(dp500
g3
g15
sg5
(lp501
g432
asg7
g120
sg9
(lp502
(I0
I11
tp503
asg12
g8
sba(iclasses.towerAI
Action
p504
(dp505
g3
g15
sg5
(lp506
g428
asg7
g120
sg9
(lp507
(I0
I10
tp508
asg12
g8
sba(iclasses.towerAI
Action
p509
(dp510
g3
g15
sg5
(lp511
g424
asg7
g120
sg9
(lp512
(I0
I9
tp513
asg12
g8
sba(iclasses.towerAI
Action
p514
(dp515
g3
g15
sg5
(lp516
g420
asg7
g120
sg9
(lp517
(I0
I8
tp518
asg12
g8
sba(iclasses.towerAI
Action
p519
(dp520
g3
g15
sg5
(lp521
g416
asg7
g120
sg9
(lp522
(I0
I7
tp523
asg12
g8
sba(iclasses.towerAI
Action
p524
(dp525
g3
g15
sg5
(lp526
g412
asg7
g120
sg9
(lp527
(I0
I6
tp528
asg12
g8
sba(iclasses.towerAI
Action
p529
(dp530
g3
g15
sg5
(lp531
g408
asg7
g120
sg9
(lp532
(I0
I5
tp533
asg12
g8
sba(iclasses.towerAI
Action
p534
(dp535
g3
g15
sg5
(lp536
g404
asg7
g120
sg9
(lp537
(I0
I4
tp538
asg12
g8
sba(iclasses.towerAI
Action
p539
(dp540
g3
g15
sg5
(lp541
g400
asg7
g120
sg9
(lp542
(I0
I3
tp543
asg12
g8
sba(iclasses.towerAI
Action
p544
(dp545
g3
g15
sg5
(lp546
g456
asg7
g120
sg9
(lp547
(I0
I1
tp548
asg12
g8
sba(iclasses.towerAI
Action
p549
(dp550
g3
g15
sg5
(lp551
g167
asg7
S'Basophil'
p552
sg9
(lp553
(I12
I0
tp554
asg12
g120
sba(iclasses.towerAI
Action
p555
(dp556
g3
g15
sg5
(lp557
g122
asg7
g552
sg9
(lp558
(I21
I0
tp559
asg12
g120
sba(iclasses.towerAI
Action
p560
(dp561
g3
g15
sg5
(lp562
g127
asg7
S'Eosinophil'
p563
sg9
(lp564
(I20
I0
tp565
asg12
g120
sba(iclasses.towerAI
Action
p566
(dp567
g3
g15
sg5
(lp568
g478
asg7
g552
sg9
(lp569
(I0
I16
tp570
asg12
g120
sba(iclasses.towerAI
Action
p571
(dp572
g3
g15
sg5
(lp573
g162
asg7
g563
sg9
(lp574
(I13
I0
tp575
asg12
g120
sba(iclasses.towerAI
Action
p576
(dp577
g3
g15
sg5
(lp578
g197
asg7
g552
sg9
(lp579
(I6
I0
tp580
asg12
g120
sba(iclasses.towerAI
Action
p581
(dp582
g3
g15
sg5
(lp583
g187
asg7
g563
sg9
(lp584
(I8
I0
tp585
asg12
g120
sba(iclasses.towerAI
Action
p586
(dp587
g3
g15
sg5
(lp588
g192
asg7
g563
sg9
(lp589
(I7
I0
tp590
asg12
g120
sba(iclasses.towerAI
Action
p591
(dp592
g3
g15
sg5
(lp593
g182
asg7
g552
sg9
(lp594
(I9
I0
tp595
asg12
g120
sba(iclasses.towerAI
Action
p596
(dp597
g3
g15
sg5
(lp598
g483
asg7
g563
sg9
(lp599
(I0
I15
tp600
asg12
g120
sba(iclasses.towerAI
Action
p601
(dp602
g3
g15
sg5
(lp603
g488
asg7
g552
sg9
(lp604
(I0
I14
tp605
asg12
g120
sba(iclasses.towerAI
Action
p606
(dp607
g3
g459
sg5
(lp608
g493
asg7
Nsg9
Nsg12
g120
sba(iclasses.towerAI
Action
p609
(dp610
g3
g4
sg5
g6
sg7
g8
sg9
(lp611
(I0
I13
tp612
asg12
Nsba(iclasses.towerAI
Action
p613
(dp614
g3
g15
sg5
(lp615
g612
asg7
g120
sg9
(lp616
(I0
I13
tp617
asg12
g8
sba(iclasses.towerAI
Action
p618
(dp619
g3
g15
sg5
(lp620
g617
asg7
g563
sg9
(lp621
(I0
I13
tp622
asg12
g120
sba(iclasses.towerAI
Action
p623
(dp624
g3
g15
sg5
(lp625
g498
asg7
g552
sg9
(lp626
(I0
I12
tp627
asg12
g120
sba(iclasses.towerAI
Action
p628
(dp629
g3
g15
sg5
(lp630
g503
asg7
g563
sg9
(lp631
(I0
I11
tp632
asg12
g120
sba(iclasses.towerAI
Action
p633
(dp634
g3
g15
sg5
(lp635
g508
asg7
g552
sg9
(lp636
(I0
I10
tp637
asg12
g120
sba(iclasses.towerAI
Action
p638
(dp639
g3
g15
sg5
(lp640
g513
asg7
g563
sg9
(lp641
(I0
I9
tp642
asg12
g120
sba(iclasses.towerAI
Action
p643
(dp644
g3
g15
sg5
(lp645
g518
asg7
g552
sg9
(lp646
(I0
I8
tp647
asg12
g120
sba(iclasses.towerAI
Action
p648
(dp649
g3
g15
sg5
(lp650
g523
asg7
g563
sg9
(lp651
(I0
I7
tp652
asg12
g120
sba(iclasses.towerAI
Action
p653
(dp654
g3
g15
sg5
(lp655
g528
asg7
g552
sg9
(lp656
(I0
I6
tp657
asg12
g120
sba(iclasses.towerAI
Action
p658
(dp659
g3
g15
sg5
(lp660
g533
asg7
g563
sg9
(lp661
(I0
I5
tp662
asg12
g120
sba(iclasses.towerAI
Action
p663
(dp664
g3
g15
sg5
(lp665
g538
asg7
g552
sg9
(lp666
(I0
I4
tp667
asg12
g120
sba(iclasses.towerAI
Action
p668
(dp669
g3
g15
sg5
(lp670
g543
asg7
g563
sg9
(lp671
(I0
I3
tp672
asg12
g120
sba(iclasses.towerAI
Action
p673
(dp674
g3
g459
sg5
(lp675
g352
asg7
Nsg9
Nsg12
g8
sba(iclasses.towerAI
Action
p676
(dp677
g3
g15
sg5
(lp678
g356
asg7
g17
sg9
(lp679
(I2
I14
tp680
asg12
g8
sba(iclasses.towerAI
Action
p681
(dp682
g3
g15
sg5
(lp683
g680
asg7
g266
sg9
(lp684
(I2
I14
tp685
a(I3
I14
tp686
a(I2
I15
tp687
a(I3
I15
tp688
asg12
g17
sba(iclasses.towerAI
Action
p689
(dp690
g3
g15
sg5
(lp691
g685
ag686
ag687
ag688
asg7
g275
sg9
(lp692
(I2
I14
tp693
a(I3
I14
tp694
a(I2
I15
tp695
a(I3
I15
tp696
asg12
g266
sba(iclasses.towerAI
Action
p697
(dp698
g3
g15
sg5
(lp699
g340
asg7
g552
sg9
(lp700
(I0
I2
tp701
asg12
g120
sba(iclasses.towerAI
Action
p702
(dp703
g3
g15
sg5
(lp704
g548
asg7
g563
sg9
(lp705
(I0
I1
tp706
asg12
g120
sba(iclasses.towerAI
Action
p707
(dp708
g3
g15
sg5
(lp709
g244
asg7
g552
sg9
(lp710
(I0
I0
tp711
asg12
g120
sba(iclasses.towerAI
Action
p712
(dp713
g3
g15
sg5
(lp714
g222
asg7
g563
sg9
(lp715
(I1
I0
tp716
asg12
g120
sba(iclasses.towerAI
Action
p717
(dp718
g3
g15
sg5
(lp719
g217
asg7
g552
sg9
(lp720
(I2
I0
tp721
asg12
g120
sba(iclasses.towerAI
Action
p722
(dp723
g3
g15
sg5
(lp724
g212
asg7
g563
sg9
(lp725
(I3
I0
tp726
asg12
g120
sba(iclasses.towerAI
Action
p727
(dp728
g3
g15
sg5
(lp729
g207
asg7
g552
sg9
(lp730
(I4
I0
tp731
asg12
g120
sba(iclasses.towerAI
Action
p732
(dp733
g3
g15
sg5
(lp734
g202
asg7
g563
sg9
(lp735
(I5
I0
tp736
asg12
g120
sba(iclasses.towerAI
Action
p737
(dp738
g3
g15
sg5
(lp739
g177
asg7
g552
sg9
(lp740
(I10
I0
tp741
asg12
g120
sba(iclasses.towerAI
Action
p742
(dp743
g3
g15
sg5
(lp744
g172
asg7
g563
sg9
(lp745
(I11
I0
tp746
asg12
g120
sba(iclasses.towerAI
Action
p747
(dp748
g3
g15
sg5
(lp749
g157
asg7
g552
sg9
(lp750
(I14
I0
tp751
asg12
g120
sba(iclasses.towerAI
Action
p752
(dp753
g3
g15
sg5
(lp754
g142
asg7
g552
sg9
(lp755
(I16
I0
tp756
asg12
g120
sba(iclasses.towerAI
Action
p757
(dp758
g3
g15
sg5
(lp759
g137
asg7
g552
sg9
(lp760
(I18
I0
tp761
asg12
g120
sba(iclasses.towerAI
Action
p762
(dp763
g3
g15
sg5
(lp764
g152
asg7
g563
sg9
(lp765
(I15
I0
tp766
asg12
g120
sba(iclasses.towerAI
Action
p767
(dp768
g3
g15
sg5
(lp769
g147
asg7
g563
sg9
(lp770
(I17
I0
tp771
asg12
g120
sba(iclasses.towerAI
Action
p772
(dp773
g3
g459
sg5
(lp774
g384
asg7
Nsg9
Nsg12
g8
sba(iclasses.towerAI
Action
p775
(dp776
g3
g15
sg5
(lp777
g360
asg7
g120
sg9
(lp778
(I2
I12
tp779
asg12
g8
sba(iclasses.towerAI
Action
p780
(dp781
g3
g15
sg5
(lp782
g779
asg7
g284
sg9
(lp783
(I2
I12
tp784
a(I3
I12
tp785
a(I2
I13
tp786
a(I3
I13
tp787
asg12
g120
sba(iclasses.towerAI
Action
p788
(dp789
g3
g459
sg5
(lp790
g368
asg7
Nsg9
Nsg12
g8
sba(iclasses.towerAI
Action
p791
(dp792
g3
g15
sg5
(lp793
g372
asg7
g120
sg9
(lp794
(I2
I8
tp795
asg12
g8
sba(iclasses.towerAI
Action
p796
(dp797
g3
g15
sg5
(lp798
g795
asg7
g284
sg9
(lp799
(I2
I8
tp800
a(I3
I8
tp801
a(I2
I9
tp802
a(I3
I9
tp803
asg12
g120
sba(iclasses.towerAI
Action
p804
(dp805
g3
g459
sg5
(lp806
g392
asg7
Nsg9
Nsg12
g8
sba(iclasses.towerAI
Action
p807
(dp808
g3
g15
sg5
(lp809
g376
asg7
g17
sg9
(lp810
(I2
I6
tp811
asg12
g8
sba(iclasses.towerAI
Action
p812
(dp813
g3
g15
sg5
(lp814
g811
asg7
g266
sg9
(lp815
(I2
I6
tp816
a(I3
I6
tp817
a(I2
I7
tp818
a(I3
I7
tp819
asg12
g17
sba(iclasses.towerAI
Action
p820
(dp821
g3
g15
sg5
(lp822
g816
ag817
ag818
ag819
asg7
g275
sg9
(lp823
(I2
I6
tp824
a(I3
I6
tp825
a(I2
I7
tp826
a(I3
I7
tp827
asg12
g266
sba(iclasses.towerAI
Action
p828
(dp829
g3
g4
sg5
g6
sg7
g8
sg9
(lp830
(I17
I2
tp831
asg12
Nsba(iclasses.towerAI
Action
p832
(dp833
g3
g15
sg5
(lp834
g831
asg7
g120
sg9
(lp835
(I17
I2
tp836
asg12
g8
sba(iclasses.towerAI
Action
p837
(dp838
g3
g15
sg5
(lp839
g836
asg7
g284
sg9
(lp840
(I16
I2
tp841
a(I17
I2
tp842
a(I16
I3
tp843
a(I17
I3
tp844
asg12
g120
sba(iclasses.towerAI
Action
p845
(dp846
g3
g4
sg5
g6
sg7
g8
sg9
(lp847
(I20
I2
tp848
asg12
Nsba(iclasses.towerAI
Action
p849
(dp850
g3
g15
sg5
(lp851
g848
asg7
g120
sg9
(lp852
(I20
I2
tp853
asg12
g8
sba(iclasses.towerAI
Action
p854
(dp855
g3
g15
sg5
(lp856
g853
asg7
S'Monocyte'
p857
sg9
(lp858
(I20
I2
tp859
asg12
g120
sba(iclasses.towerAI
Action
p860
(dp861
g3
g4
sg5
g6
sg7
g8
sg9
(lp862
(I14
I2
tp863
asg12
Nsba(iclasses.towerAI
Action
p864
(dp865
g3
g15
sg5
(lp866
g863
asg7
g120
sg9
(lp867
(I14
I2
tp868
asg12
g8
sba(iclasses.towerAI
Action
p869
(dp870
g3
g15
sg5
(lp871
g868
asg7
g857
sg9
(lp872
(I14
I2
tp873
asg12
g120
sba(iclasses.towerAI
Action
p874
(dp875
g3
g4
sg5
g6
sg7
g8
sg9
(lp876
(I8
I2
tp877
asg12
Nsba(iclasses.towerAI
Action
p878
(dp879
g3
g15
sg5
(lp880
g877
asg7
g120
sg9
(lp881
(I8
I2
tp882
asg12
g8
sba(iclasses.towerAI
Action
p883
(dp884
g3
g15
sg5
(lp885
g882
asg7
g857
sg9
(lp886
(I8
I2
tp887
asg12
g120
sba(iclasses.towerAI
Action
p888
(dp889
g3
g15
sg5
(lp890
g396
asg7
g17
sg9
(lp891
(I2
I4
tp892
asg12
g8
sba(iclasses.towerAI
Action
p893
(dp894
g3
g459
sg5
(lp895
g892
asg7
Nsg9
Nsg12
g17
sba(iclasses.towerAI
Action
p896
(dp897
g3
g15
sg5
(lp898
g380
asg7
g120
sg9
(lp899
(I2
I4
tp900
asg12
g8
sba(iclasses.towerAI
Action
p901
(dp902
g3
g15
sg5
(lp903
g900
asg7
g857
sg9
(lp904
(I2
I4
tp905
asg12
g120
sba(iclasses.towerAI
Action
p906
(dp907
g3
g4
sg5
g6
sg7
g8
sg9
(lp908
(I2
I5
tp909
asg12
Nsba(iclasses.towerAI
Action
p910
(dp911
g3
g15
sg5
(lp912
g859
asg7
S'Macrophage'
p913
sg9
(lp914
(I20
I2
tp915
a(I21
I2
tp916
a(I20
I3
tp917
a(I21
I3
tp918
asg12
g857
sba(iclasses.towerAI
Action
p919
(dp920
g3
g15
sg5
(lp921
g873
asg7
g913
sg9
(lp922
(I14
I2
tp923
a(I15
I2
tp924
a(I14
I3
tp925
a(I15
I3
tp926
asg12
g857
sba(iclasses.towerAI
Action
p927
(dp928
g3
g15
sg5
(lp929
g887
asg7
g913
sg9
(lp930
(I8
I2
tp931
a(I9
I2
tp932
a(I8
I3
tp933
a(I9
I3
tp934
asg12
g857
sba(iclasses.towerAI
Action
p935
(dp936
g3
g15
sg5
(lp937
g388
asg7
g120
sg9
(lp938
(I2
I10
tp939
asg12
g8
sba(iclasses.towerAI
Action
p940
(dp941
g3
g459
sg5
(lp942
g909
asg7
Nsg9
Nsg12
g8
sba(iclasses.towerAI
Action
p943
(dp944
g3
g15
sg5
(lp945
g905
asg7
g913
sg9
(lp946
(I2
I4
tp947
a(I3
I4
tp948
a(I2
I5
tp949
a(I3
I5
tp950
asg12
g857
sba(iclasses.towerAI
Action
p951
(dp952
g3
g459
sg5
(lp953
g364
asg7
Nsg9
Nsg12
g8
sba(iclasses.towerAI
Action
p954
(dp955
g3
g15
sg5
(lp956
g939
asg7
g857
sg9
(lp957
(I2
I10
tp958
asg12
g120
sba(iclasses.towerAI
Action
p959
(dp960
g3
g4
sg5
g6
sg7
g8
sg9
(lp961
(I2
I11
tp962
asg12
Nsba(iclasses.towerAI
Action
p963
(dp964
g3
g459
sg5
(lp965
g962
asg7
Nsg9
Nsg12
g8
sba(iclasses.towerAI
Action
p966
(dp967
g3
g15
sg5
(lp968
g958
asg7
g913
sg9
(lp969
(I2
I10
tp970
a(I3
I10
tp971
a(I2
I11
tp972
a(I3
I11
tp973
asg12
g857
sba(iclasses.towerAI
Action
p974
(dp975
g3
g4
sg5
g6
sg7
g8
sg9
(lp976
(I4
I12
tp977
asg12
Nsba(iclasses.towerAI
Action
p978
(dp979
g3
g4
sg5
g6
sg7
g8
sg9
(lp980
(I5
I12
tp981
asg12
Nsba(iclasses.towerAI
Action
p982
(dp983
g3
g4
sg5
g6
sg7
g8
sg9
(lp984
(I6
I12
tp985
asg12
Nsba(iclasses.towerAI
Action
p986
(dp987
g3
g4
sg5
g6
sg7
g8
sg9
(lp988
(I7
I12
tp989
asg12
Nsba(iclasses.towerAI
Action
p990
(dp991
g3
g4
sg5
g6
sg7
g8
sg9
(lp992
(I8
I12
tp993
asg12
Nsba(iclasses.towerAI
Action
p994
(dp995
g3
g4
sg5
g6
sg7
g8
sg9
(lp996
(I9
I12
tp997
asg12
Nsba(iclasses.towerAI
Action
p998
(dp999
g3
g4
sg5
g6
sg7
g8
sg9
(lp1000
(I10
I12
tp1001
asg12
Nsba(iclasses.towerAI
Action
p1002
(dp1003
g3
g4
sg5
g6
sg7
g8
sg9
(lp1004
(I11
I12
tp1005
asg12
Nsba(iclasses.towerAI
Action
p1006
(dp1007
g3
g4
sg5
g6
sg7
g8
sg9
(lp1008
(I12
I12
tp1009
asg12
Nsba(iclasses.towerAI
Action
p1010
(dp1011
g3
g4
sg5
g6
sg7
g8
sg9
(lp1012
(I13
I12
tp1013
asg12
Nsba(iclasses.towerAI
Action
p1014
(dp1015
g3
g4
sg5
g6
sg7
g8
sg9
(lp1016
(I14
I12
tp1017
asg12
Nsba(iclasses.towerAI
Action
p1018
(dp1019
g3
g4
sg5
g6
sg7
g8
sg9
(lp1020
(I15
I12
tp1021
asg12
Nsba(iclasses.towerAI
Action
p1022
(dp1023
g3
g4
sg5
g6
sg7
g8
sg9
(lp1024
(I16
I12
tp1025
asg12
Nsba(iclasses.towerAI
Action
p1026
(dp1027
g3
g4
sg5
g6
sg7
g8
sg9
(lp1028
(I17
I12
tp1029
asg12
Nsba(iclasses.towerAI
Action
p1030
(dp1031
g3
g4
sg5
g6
sg7
g8
sg9
(lp1032
(I18
I12
tp1033
asg12
Nsba(iclasses.towerAI
Action
p1034
(dp1035
g3
g4
sg5
g6
sg7
g8
sg9
(lp1036
(I19
I12
tp1037
asg12
Nsba(iclasses.towerAI
Action
p1038
(dp1039
g3
g4
sg5
g6
sg7
g8
sg9
(lp1040
(I20
I12
tp1041
asg12
Nsba(iclasses.towerAI
Action
p1042
(dp1043
g3
g4
sg5
g6
sg7
g8
sg9
(lp1044
(I21
I12
tp1045
asg12
Nsba(iclasses.towerAI
Action
p1046
(dp1047
g3
g4
sg5
g6
sg7
g8
sg9
(lp1048
(I4
I14
tp1049
asg12
Nsba(iclasses.towerAI
Action
p1050
(dp1051
g3
g4
sg5
g6
sg7
g8
sg9
(lp1052
(I6
I14
tp1053
asg12
Nsba(iclasses.towerAI
Action
p1054
(dp1055
g3
g4
sg5
g6
sg7
g8
sg9
(lp1056
(I8
I14
tp1057
asg12
Nsba(iclasses.towerAI
Action
p1058
(dp1059
g3
g4
sg5
g6
sg7
g8
sg9
(lp1060
(I10
I14
tp1061
asg12
Nsba(iclasses.towerAI
Action
p1062
(dp1063
g3
g4
sg5
g6
sg7
g8
sg9
(lp1064
(I12
I14
tp1065
asg12
Nsba(iclasses.towerAI
Action
p1066
(dp1067
g3
g4
sg5
g6
sg7
g8
sg9
(lp1068
(I14
I14
tp1069
asg12
Nsba(iclasses.towerAI
Action
p1070
(dp1071
g3
g4
sg5
g6
sg7
g8
sg9
(lp1072
(I16
I14
tp1073
asg12
Nsba(iclasses.towerAI
Action
p1074
(dp1075
g3
g4
sg5
g6
sg7
g8
sg9
(lp1076
(I18
I14
tp1077
asg12
Nsba(iclasses.towerAI
Action
p1078
(dp1079
g3
g4
sg5
g6
sg7
g8
sg9
(lp1080
(I4
I17
tp1081
asg12
Nsba(iclasses.towerAI
Action
p1082
(dp1083
g3
g15
sg5
(lp1084
g1049
asg7
g17
sg9
(lp1085
(I4
I14
tp1086
asg12
g8
sba(iclasses.towerAI
Action
p1087
(dp1088
g3
g15
sg5
(lp1089
g1086
asg7
g23
sg9
(lp1090
(I4
I14
tp1091
a(I5
I14
tp1092
a(I4
I15
tp1093
a(I5
I15
tp1094
asg12
g17
sba(iclasses.towerAI
Action
p1095
(dp1096
g3
g15
sg5
(lp1097
g1053
asg7
g17
sg9
(lp1098
(I6
I14
tp1099
asg12
g8
sba(iclasses.towerAI
Action
p1100
(dp1101
g3
g15
sg5
(lp1102
g1099
asg7
g266
sg9
(lp1103
(I6
I14
tp1104
a(I7
I14
tp1105
a(I6
I15
tp1106
a(I7
I15
tp1107
asg12
g17
sba(iclasses.towerAI
Action
p1108
(dp1109
g3
g15
sg5
(lp1110
g1057
asg7
g120
sg9
(lp1111
(I8
I14
tp1112
asg12
g8
sba(iclasses.towerAI
Action
p1113
(dp1114
g3
g15
sg5
(lp1115
g1061
asg7
g120
sg9
(lp1116
(I10
I14
tp1117
asg12
g8
sba(iclasses.towerAI
Action
p1118
(dp1119
g3
g15
sg5
(lp1120
g1065
asg7
g120
sg9
(lp1121
(I12
I14
tp1122
asg12
g8
sba(iclasses.towerAI
Action
p1123
(dp1124
g3
g15
sg5
(lp1125
g1069
asg7
g120
sg9
(lp1126
(I14
I14
tp1127
asg12
g8
sba(iclasses.towerAI
Action
p1128
(dp1129
g3
g15
sg5
(lp1130
g1073
asg7
g120
sg9
(lp1131
(I16
I14
tp1132
asg12
g8
sba(iclasses.towerAI
Action
p1133
(dp1134
g3
g15
sg5
(lp1135
g1077
asg7
g120
sg9
(lp1136
(I18
I14
tp1137
asg12
g8
sba(iclasses.towerAI
Action
p1138
(dp1139
g3
g15
sg5
(lp1140
g1112
asg7
g857
sg9
(lp1141
(I8
I14
tp1142
asg12
g120
sba(iclasses.towerAI
Action
p1143
(dp1144
g3
g15
sg5
(lp1145
g1117
asg7
g284
sg9
(lp1146
(I10
I14
tp1147
a(I11
I14
tp1148
a(I10
I15
tp1149
a(I11
I15
tp1150
asg12
g120
sba(iclasses.towerAI
Action
p1151
(dp1152
g3
g459
sg5
(lp1153
g784
ag785
ag786
ag787
asg7
Nsg9
Nsg12
g284
sba(iclasses.towerAI
Action
p1154
(dp1155
g3
g459
sg5
(lp1156
g600
asg7
Nsg9
Nsg12
g563
sba(iclasses.towerAI
Action
p1157
(dp1158
g3
g459
sg5
(lp1159
g605
asg7
Nsg9
Nsg12
g552
sba(iclasses.towerAI
Action
p1160
(dp1161
g3
g4
sg5
g6
sg7
g8
sg9
(lp1162
(I0
I14
tp1163
asg12
Nsba(iclasses.towerAI
Action
p1164
(dp1165
g3
g15
sg5
(lp1166
g1163
asg7
g120
sg9
(lp1167
(I0
I14
tp1168
asg12
g8
sba(iclasses.towerAI
Action
p1169
(dp1170
g3
g459
sg5
(lp1171
g470
ag471
ag472
ag473
asg7
Nsg9
Nsg12
g23
sba(iclasses.towerAI
Action
p1172
(dp1173
g3
g15
sg5
(lp1174
g1168
asg7
g284
sg9
(lp1175
(I0
I14
tp1176
a(I1
I14
tp1177
a(I0
I15
tp1178
a(I1
I15
tp1179
asg12
g120
sba(iclasses.towerAI
Action
p1180
(dp1181
g3
g15
sg5
(lp1182
g1132
asg7
g857
sg9
(lp1183
(I16
I14
tp1184
asg12
g120
sba(iclasses.towerAI
Action
p1185
(dp1186
g3
g15
sg5
(lp1187
g1137
asg7
g284
sg9
(lp1188
(I17
I14
tp1189
a(I18
I14
tp1190
a(I17
I15
tp1191
a(I18
I15
tp1192
asg12
g120
sba(iclasses.towerAI
Action
p1193
(dp1194
g3
g459
sg5
(lp1195
g1184
asg7
Nsg9
Nsg12
g857
sba(iclasses.towerAI
Action
p1196
(dp1197
g3
g459
sg5
(lp1198
g1189
ag1190
ag1191
ag1192
asg7
Nsg9
Nsg12
g284
sba(iclasses.towerAI
Action
p1199
(dp1200
g3
g4
sg5
g6
sg7
g8
sg9
(lp1201
(I16
I14
tp1202
asg12
Nsba(iclasses.towerAI
Action
p1203
(dp1204
g3
g15
sg5
(lp1205
g1202
asg7
g120
sg9
(lp1206
(I16
I14
tp1207
asg12
g8
sba(iclasses.towerAI
Action
p1208
(dp1209
g3
g15
sg5
(lp1210
g1207
asg7
g857
sg9
(lp1211
(I16
I14
tp1212
asg12
g120
sba(iclasses.towerAI
Action
p1213
(dp1214
g3
g4
sg5
g6
sg7
g8
sg9
(lp1215
(I18
I14
tp1216
asg12
Nsba(iclasses.towerAI
Action
p1217
(dp1218
g3
g15
sg5
(lp1219
g1216
asg7
g120
sg9
(lp1220
(I18
I14
tp1221
asg12
g8
sba(iclasses.towerAI
Action
p1222
(dp1223
g3
g15
sg5
(lp1224
g1081
asg7
g17
sg9
(lp1225
(I4
I17
tp1226
asg12
g8
sba(iclasses.towerAI
Action
p1227
(dp1228
g3
g15
sg5
(lp1229
g977
asg7
g120
sg9
(lp1230
(I4
I12
tp1231
asg12
g8
sba(iclasses.towerAI
Action
p1232
(dp1233
g3
g15
sg5
(lp1234
g981
asg7
g120
sg9
(lp1235
(I5
I12
tp1236
asg12
g8
sba(iclasses.towerAI
Action
p1237
(dp1238
g3
g15
sg5
(lp1239
g985
asg7
g120
sg9
(lp1240
(I10
I16
tp1241
asg12
g8
sba(iclasses.towerAI
Action
p1242
(dp1243
g3
g15
sg5
(lp1244
g989
asg7
g120
sg9
(lp1245
(I6
I12
tp1246
asg12
g8
sba(iclasses.towerAI
Action
p1247
(dp1248
g3
g4
sg5
g6
sg7
g8
sg9
(lp1249
(I7
I12
tp1250
asg12
Nsba(iclasses.towerAI
Action
p1251
(dp1252
g3
g15
sg5
(lp1253
g1250
asg7
g120
sg9
(lp1254
(I7
I12
tp1255
asg12
g8
sba(iclasses.towerAI
Action
p1256
(dp1257
g3
g15
sg5
(lp1258
g993
asg7
g120
sg9
(lp1259
(I8
I12
tp1260
asg12
g8
sba(iclasses.towerAI
Action
p1261
(dp1262
g3
g15
sg5
(lp1263
g997
asg7
g120
sg9
(lp1264
(I9
I12
tp1265
asg12
g8
sba.