(lp0
(iclasses.towerAI
Action
p1
(dp2
S'action'
p3
S'buy'
p4
sS'tower_d_pos'
p5
(lp6
sS'tower'
p7
S'Stem Cell'
p8
sS'pos'
p9
(lp10
(I21
I1
tp11
asS'tower_d'
p12
Nsba(iclasses.towerAI
Action
p13
(dp14
g3
g4
sg5
g6
sg7
g8
sg9
(lp15
(I20
I1
tp16
asg12
Nsba(iclasses.towerAI
Action
p17
(dp18
g3
S'upgrade'
p19
sg5
(lp20
g16
asg7
S'Lymphocyte'
p21
sg9
(lp22
(I20
I0
tp23
asg12
g8
sba(iclasses.towerAI
Action
p24
(dp25
g3
g19
sg5
(lp26
g11
asg7
g21
sg9
(lp27
(I20
I2
tp28
asg12
g8
sba.