(lp0
(iclasses.towerAI
Action
p1
(dp2
S'action'
p3
S'buy'
p4
sS'tower_d_pos'
p5
(lp6
sS'tower'
p7
S'Stem Cell'
p8
sS'pos'
p9
(lp10
(I0
I1
tp11
asS'tower_d'
p12
Nsba(iclasses.towerAI
Action
p13
(dp14
g3
S'upgrade'
p15
sg5
(lp16
g11
asg7
S'Lymphocyte'
p17
sg9
(lp18
(I0
I1
tp19
asg12
g8
sba(iclasses.towerAI
Action
p20
(dp21
g3
g15
sg5
(lp22
g19
asg7
S'T-Cell'
p23
sg9
(lp24
(I0
I1
tp25
a(I1
I1
tp26
a(I0
I2
tp27
a(I1
I2
tp28
asg12
g17
sba(iclasses.towerAI
Action
p29
(dp30
g3
g4
sg5
g6
sg7
g8
sg9
(lp31
(I19
I1
tp32
asg12
Nsba(iclasses.towerAI
Action
p33
(dp34
g3
g15
sg5
(lp35
g32
asg7
g17
sg9
(lp36
(I19
I1
tp37
asg12
g8
sba(iclasses.towerAI
Action
p38
(dp39
g3
g15
sg5
(lp40
g37
asg7
g23
sg9
(lp41
(I19
I1
tp42
a(I20
I1
tp43
a(I19
I2
tp44
a(I20
I2
tp45
asg12
g17
sba(iclasses.towerAI
Action
p46
(dp47
g3
g4
sg5
g6
sg7
g8
sg9
(lp48
(I21
I1
tp49
asg12
Nsba(iclasses.towerAI
Action
p50
(dp51
g3
g15
sg5
(lp52
g49
asg7
S'Granulocyte'
p53
sg9
(lp54
(I21
I1
tp55
asg12
g8
sba(iclasses.towerAI
Action
p56
(dp57
g3
g4
sg5
g6
sg7
g8
sg9
(lp58
(I3
I1
tp59
asg12
Nsba(iclasses.towerAI
Action
p60
(dp61
g3
g15
sg5
(lp62
g59
asg7
g17
sg9
(lp63
(I3
I1
tp64
asg12
g8
sba(iclasses.towerAI
Action
p65
(dp66
g3
g4
sg5
g6
sg7
g8
sg9
(lp67
(I4
I1
tp68
asg12
Nsba(iclasses.towerAI
Action
p69
(dp70
g3
g15
sg5
(lp71
g68
asg7
g53
sg9
(lp72
(I4
I1
tp73
asg12
g8
sba(iclasses.towerAI
Action
p74
(dp75
g3
g4
sg5
g6
sg7
g8
sg9
(lp76
(I6
I1
tp77
asg12
Nsba(iclasses.towerAI
Action
p78
(dp79
g3
g15
sg5
(lp80
g77
asg7
g53
sg9
(lp81
(I6
I1
tp82
asg12
g8
sba(iclasses.towerAI
Action
p83
(dp84
g3
g4
sg5
g6
sg7
g8
sg9
(lp85
(I7
I1
tp86
asg12
Nsba(iclasses.towerAI
Action
p87
(dp88
g3
g15
sg5
(lp89
g86
asg7
g53
sg9
(lp90
(I7
I1
tp91
asg12
g8
sba(iclasses.towerAI
Action
p92
(dp93
g3
g4
sg5
g6
sg7
g8
sg9
(lp94
(I8
I1
tp95
asg12
Nsba(iclasses.towerAI
Action
p96
(dp97
g3
g15
sg5
(lp98
g95
asg7
g53
sg9
(lp99
(I8
I1
tp100
asg12
g8
sba(iclasses.towerAI
Action
p101
(dp102
g3
g4
sg5
g6
sg7
g8
sg9
(lp103
(I9
I1
tp104
asg12
Nsba(iclasses.towerAI
Action
p105
(dp106
g3
g15
sg5
(lp107
g104
asg7
g53
sg9
(lp108
(I9
I1
tp109
asg12
g8
sba(iclasses.towerAI
Action
p110
(dp111
g3
g4
sg5
g6
sg7
g8
sg9
(lp112
(I10
I1
tp113
asg12
Nsba(iclasses.towerAI
Action
p114
(dp115
g3
g15
sg5
(lp116
g113
asg7
g53
sg9
(lp117
(I10
I1
tp118
asg12
g8
sba(iclasses.towerAI
Action
p119
(dp120
g3
g4
sg5
g6
sg7
g8
sg9
(lp121
(I11
I1
tp122
asg12
Nsba(iclasses.towerAI
Action
p123
(dp124
g3
g15
sg5
(lp125
g122
asg7
g53
sg9
(lp126
(I11
I1
tp127
asg12
g8
sba(iclasses.towerAI
Action
p128
(dp129
g3
g4
sg5
g6
sg7
g8
sg9
(lp130
(I12
I1
tp131
asg12
Nsba(iclasses.towerAI
Action
p132
(dp133
g3
g15
sg5
(lp134
g131
asg7
g53
sg9
(lp135
(I12
I1
tp136
asg12
g8
sba(iclasses.towerAI
Action
p137
(dp138
g3
g4
sg5
g6
sg7
g8
sg9
(lp139
(I13
I1
tp140
asg12
Nsba(iclasses.towerAI
Action
p141
(dp142
g3
g15
sg5
(lp143
g140
asg7
g53
sg9
(lp144
(I13
I1
tp145
asg12
g8
sba(iclasses.towerAI
Action
p146
(dp147
g3
g4
sg5
g6
sg7
g8
sg9
(lp148
(I14
I1
tp149
asg12
Nsba(iclasses.towerAI
Action
p150
(dp151
g3
g15
sg5
(lp152
g149
asg7
g53
sg9
(lp153
(I14
I1
tp154
asg12
g8
sba(iclasses.towerAI
Action
p155
(dp156
g3
g4
sg5
g6
sg7
g8
sg9
(lp157
(I2
I17
tp158
asg12
Nsba(iclasses.towerAI
Action
p159
(dp160
g3
g4
sg5
g6
sg7
g8
sg9
(lp161
(I0
I16
tp162
asg12
Nsba(iclasses.towerAI
Action
p163
(dp164
g3
g15
sg5
(lp165
g158
asg7
g17
sg9
(lp166
(I2
I17
tp167
asg12
g8
sba(iclasses.towerAI
Action
p168
(dp169
g3
g4
sg5
g6
sg7
g8
sg9
(lp170
(I0
I3
tp171
asg12
Nsba(iclasses.towerAI
Action
p172
(dp173
g3
g4
sg5
g6
sg7
g8
sg9
(lp174
(I0
I4
tp175
asg12
Nsba(iclasses.towerAI
Action
p176
(dp177
g3
g4
sg5
g6
sg7
g8
sg9
(lp178
(I0
I5
tp179
asg12
Nsba(iclasses.towerAI
Action
p180
(dp181
g3
g4
sg5
g6
sg7
g8
sg9
(lp182
(I0
I6
tp183
asg12
Nsba(iclasses.towerAI
Action
p184
(dp185
g3
g4
sg5
g6
sg7
g8
sg9
(lp186
(I0
I7
tp187
asg12
Nsba(iclasses.towerAI
Action
p188
(dp189
g3
g4
sg5
g6
sg7
g8
sg9
(lp190
(I0
I8
tp191
asg12
Nsba(iclasses.towerAI
Action
p192
(dp193
g3
g4
sg5
g6
sg7
g8
sg9
(lp194
(I0
I9
tp195
asg12
Nsba(iclasses.towerAI
Action
p196
(dp197
g3
g4
sg5
g6
sg7
g8
sg9
(lp198
(I0
I10
tp199
asg12
Nsba(iclasses.towerAI
Action
p200
(dp201
g3
g4
sg5
g6
sg7
g8
sg9
(lp202
(I0
I11
tp203
asg12
Nsba(iclasses.towerAI
Action
p204
(dp205
g3
g4
sg5
g6
sg7
g8
sg9
(lp206
(I0
I12
tp207
asg12
Nsba(iclasses.towerAI
Action
p208
(dp209
g3
g4
sg5
g6
sg7
g8
sg9
(lp210
(I0
I13
tp211
asg12
Nsba(iclasses.towerAI
Action
p212
(dp213
g3
g4
sg5
g6
sg7
g8
sg9
(lp214
(I0
I14
tp215
asg12
Nsba(iclasses.towerAI
Action
p216
(dp217
g3
g4
sg5
g6
sg7
g8
sg9
(lp218
(I0
I15
tp219
asg12
Nsba(iclasses.towerAI
Action
p220
(dp221
g3
g4
sg5
g6
sg7
g8
sg9
(lp222
(I4
I17
tp223
asg12
Nsba(iclasses.towerAI
Action
p224
(dp225
g3
g4
sg5
g6
sg7
g8
sg9
(lp226
(I4
I16
tp227
asg12
Nsba(iclasses.towerAI
Action
p228
(dp229
g3
g4
sg5
g6
sg7
g8
sg9
(lp230
(I4
I15
tp231
asg12
Nsba(iclasses.towerAI
Action
p232
(dp233
g3
g4
sg5
g6
sg7
g8
sg9
(lp234
(I4
I14
tp235
asg12
Nsba(iclasses.towerAI
Action
p236
(dp237
g3
g4
sg5
g6
sg7
g8
sg9
(lp238
(I4
I13
tp239
asg12
Nsba(iclasses.towerAI
Action
p240
(dp241
g3
g4
sg5
g6
sg7
g8
sg9
(lp242
(I4
I12
tp243
asg12
Nsba(iclasses.towerAI
Action
p244
(dp245
g3
g4
sg5
g6
sg7
g8
sg9
(lp246
(I4
I11
tp247
asg12
Nsba(iclasses.towerAI
Action
p248
(dp249
g3
g4
sg5
g6
sg7
g8
sg9
(lp250
(I4
I9
tp251
asg12
Nsba(iclasses.towerAI
Action
p252
(dp253
g3
g4
sg5
g6
sg7
g8
sg9
(lp254
(I4
I8
tp255
asg12
Nsba(iclasses.towerAI
Action
p256
(dp257
g3
g4
sg5
g6
sg7
g8
sg9
(lp258
(I4
I7
tp259
asg12
Nsba(iclasses.towerAI
Action
p260
(dp261
g3
g4
sg5
g6
sg7
g8
sg9
(lp262
(I4
I6
tp263
asg12
Nsba(iclasses.towerAI
Action
p264
(dp265
g3
g4
sg5
g6
sg7
g8
sg9
(lp266
(I4
I4
tp267
asg12
Nsba(iclasses.towerAI
Action
p268
(dp269
g3
g4
sg5
g6
sg7
g8
sg9
(lp270
(I4
I3
tp271
asg12
Nsba(iclasses.towerAI
Action
p272
(dp273
g3
g4
sg5
g6
sg7
g8
sg9
(lp274
(I4
I2
tp275
asg12
Nsba(iclasses.towerAI
Action
p276
(dp277
g3
g4
sg5
g6
sg7
g8
sg9
(lp278
(I4
I5
tp279
asg12
Nsba(iclasses.towerAI
Action
p280
(dp281
g3
g4
sg5
g6
sg7
g8
sg9
(lp282
(I4
I10
tp283
asg12
Nsba(iclasses.towerAI
Action
p284
(dp285
g3
g15
sg5
(lp286
g167
asg7
g23
sg9
(lp287
(I2
I16
tp288
a(I3
I16
tp289
a(I2
I17
tp290
a(I3
I17
tp291
asg12
g17
sba(iclasses.towerAI
Action
p292
(dp293
g3
g4
sg5
g6
sg7
g8
sg9
(lp294
(I0
I0
tp295
asg12
Nsba(iclasses.towerAI
Action
p296
(dp297
g3
S'sell'
p298
sg5
(lp299
g25
ag26
ag27
ag28
asg7
Nsg9
Nsg12
g23
sba(iclasses.towerAI
Action
p300
(dp301
g3
g4
sg5
g6
sg7
g8
sg9
(lp302
(I0
I1
tp303
asg12
Nsba(iclasses.towerAI
Action
p304
(dp305
g3
g4
sg5
g6
sg7
g8
sg9
(lp306
(I0
I2
tp307
asg12
Nsba(iclasses.towerAI
Action
p308
(dp309
g3
g4
sg5
g6
sg7
g8
sg9
(lp310
(I2
I15
tp311
asg12
Nsba(iclasses.towerAI
Action
p312
(dp313
g3
g15
sg5
(lp314
g162
asg7
g53
sg9
(lp315
(I0
I16
tp316
asg12
g8
sba(iclasses.towerAI
Action
p317
(dp318
g3
g15
sg5
(lp319
g311
asg7
g17
sg9
(lp320
(I2
I15
tp321
asg12
g8
sba(iclasses.towerAI
Action
p322
(dp323
g3
g15
sg5
(lp324
g219
asg7
g53
sg9
(lp325
(I0
I15
tp326
asg12
g8
sba(iclasses.towerAI
Action
p327
(dp328
g3
g15
sg5
(lp329
g215
asg7
g53
sg9
(lp330
(I0
I14
tp331
asg12
g8
sba(iclasses.towerAI
Action
p332
(dp333
g3
g15
sg5
(lp334
g211
asg7
g53
sg9
(lp335
(I0
I13
tp336
asg12
g8
sba(iclasses.towerAI
Action
p337
(dp338
g3
g15
sg5
(lp339
g207
asg7
g53
sg9
(lp340
(I0
I12
tp341
asg12
g8
sba(iclasses.towerAI
Action
p342
(dp343
g3
g15
sg5
(lp344
g321
asg7
S'Natural Killer Cell'
p345
sg9
(lp346
(I2
I14
tp347
a(I3
I14
tp348
a(I2
I15
tp349
a(I3
I15
tp350
asg12
g17
sba(iclasses.towerAI
Action
p351
(dp352
g3
g298
sg5
(lp353
g347
ag348
ag349
ag350
asg7
Nsg9
Nsg12
g345
sba(iclasses.towerAI
Action
p354
(dp355
g3
g4
sg5
g6
sg7
g8
sg9
(lp356
(I2
I15
tp357
asg12
Nsba(iclasses.towerAI
Action
p358
(dp359
g3
g15
sg5
(lp360
g357
asg7
g17
sg9
(lp361
(I2
I15
tp362
asg12
g8
sba(iclasses.towerAI
Action
p363
(dp364
g3
g15
sg5
(lp365
g362
asg7
S'B-Cell'
p366
sg9
(lp367
(I2
I14
tp368
a(I3
I14
tp369
a(I2
I15
tp370
a(I3
I15
tp371
asg12
g17
sba(iclasses.towerAI
Action
p372
(dp373
g3
g15
sg5
(lp374
g368
ag369
ag370
ag371
asg7
S'Plasma Cell'
p375
sg9
(lp376
(I2
I14
tp377
a(I3
I14
tp378
a(I2
I15
tp379
a(I3
I15
tp380
asg12
g366
sba(iclasses.towerAI
Action
p381
(dp382
g3
g4
sg5
g6
sg7
g8
sg9
(lp383
(I2
I13
tp384
asg12
Nsba(iclasses.towerAI
Action
p385
(dp386
g3
g15
sg5
(lp387
g384
asg7
g53
sg9
(lp388
(I2
I13
tp389
asg12
g8
sba(iclasses.towerAI
Action
p390
(dp391
g3
g15
sg5
(lp392
g389
asg7
S'Neutrophil'
p393
sg9
(lp394
(I2
I12
tp395
a(I3
I12
tp396
a(I2
I13
tp397
a(I3
I13
tp398
asg12
g53
sba(iclasses.towerAI
Action
p399
(dp400
g3
g15
sg5
(lp401
g203
asg7
g53
sg9
(lp402
(I0
I11
tp403
asg12
g8
sba(iclasses.towerAI
Action
p404
(dp405
g3
g4
sg5
g6
sg7
g8
sg9
(lp406
(I5
I2
tp407
asg12
Nsba(iclasses.towerAI
Action
p408
(dp409
g3
g4
sg5
g6
sg7
g8
sg9
(lp410
(I2
I11
tp411
asg12
Nsba(iclasses.towerAI
Action
p412
(dp413
g3
g15
sg5
(lp414
g411
asg7
g17
sg9
(lp415
(I2
I11
tp416
asg12
g8
sba(iclasses.towerAI
Action
p417
(dp418
g3
g15
sg5
(lp419
g416
asg7
g366
sg9
(lp420
(I2
I10
tp421
a(I3
I10
tp422
a(I2
I11
tp423
a(I3
I11
tp424
asg12
g17
sba(iclasses.towerAI
Action
p425
(dp426
g3
g15
sg5
(lp427
g421
ag422
ag423
ag424
asg7
g375
sg9
(lp428
(I2
I10
tp429
a(I3
I10
tp430
a(I2
I11
tp431
a(I3
I11
tp432
asg12
g366
sba(iclasses.towerAI
Action
p433
(dp434
g3
g15
sg5
(lp435
g199
asg7
g53
sg9
(lp436
(I0
I10
tp437
asg12
g8
sba(iclasses.towerAI
Action
p438
(dp439
g3
g15
sg5
(lp440
g316
asg7
S'Basophil'
p441
sg9
(lp442
(I0
I16
tp443
asg12
g53
sba(iclasses.towerAI
Action
p444
(dp445
g3
g15
sg5
(lp446
g195
asg7
g53
sg9
(lp447
(I0
I9
tp448
asg12
g8
sba(iclasses.towerAI
Action
p449
(dp450
g3
g15
sg5
(lp451
g191
asg7
g53
sg9
(lp452
(I0
I8
tp453
asg12
g8
sba(iclasses.towerAI
Action
p454
(dp455
g3
g15
sg5
(lp456
g187
asg7
g53
sg9
(lp457
(I0
I7
tp458
asg12
g8
sba(iclasses.towerAI
Action
p459
(dp460
g3
g15
sg5
(lp461
g183
asg7
g53
sg9
(lp462
(I0
I6
tp463
asg12
g8
sba(iclasses.towerAI
Action
p464
(dp465
g3
g4
sg5
g6
sg7
g8
sg9
(lp466
(I5
I1
tp467
asg12
Nsba(iclasses.towerAI
Action
p468
(dp469
g3
g4
sg5
g6
sg7
g8
sg9
(lp470
(I2
I9
tp471
asg12
Nsba(iclasses.towerAI
Action
p472
(dp473
g3
g15
sg5
(lp474
g471
asg7
g53
sg9
(lp475
(I2
I9
tp476
asg12
g8
sba(iclasses.towerAI
Action
p477
(dp478
g3
g15
sg5
(lp479
g476
asg7
g393
sg9
(lp480
(I2
I8
tp481
a(I3
I8
tp482
a(I2
I9
tp483
a(I3
I9
tp484
asg12
g53
sba(iclasses.towerAI
Action
p485
(dp486
g3
g15
sg5
(lp487
g326
asg7
g441
sg9
(lp488
(I0
I15
tp489
asg12
g53
sba(iclasses.towerAI
Action
p490
(dp491
g3
g15
sg5
(lp492
g179
asg7
g53
sg9
(lp493
(I0
I5
tp494
asg12
g8
sba(iclasses.towerAI
Action
p495
(dp496
g3
g15
sg5
(lp497
g175
asg7
g53
sg9
(lp498
(I0
I4
tp499
asg12
g8
sba(iclasses.towerAI
Action
p500
(dp501
g3
g4
sg5
g6
sg7
g8
sg9
(lp502
(I2
I7
tp503
asg12
Nsba(iclasses.towerAI
Action
p504
(dp505
g3
g15
sg5
(lp506
g503
asg7
g17
sg9
(lp507
(I2
I7
tp508
asg12
g8
sba(iclasses.towerAI
Action
p509
(dp510
g3
g15
sg5
(lp511
g508
asg7
g366
sg9
(lp512
(I2
I6
tp513
a(I3
I6
tp514
a(I2
I7
tp515
a(I3
I7
tp516
asg12
g17
sba(iclasses.towerAI
Action
p517
(dp518
g3
g15
sg5
(lp519
g513
ag514
ag515
ag516
asg7
g375
sg9
(lp520
(I2
I6
tp521
a(I3
I6
tp522
a(I2
I7
tp523
a(I3
I7
tp524
asg12
g366
sba(iclasses.towerAI
Action
p525
(dp526
g3
g4
sg5
g6
sg7
g8
sg9
(lp527
(I2
I5
tp528
asg12
Nsba(iclasses.towerAI
Action
p529
(dp530
g3
g15
sg5
(lp531
g528
asg7
g53
sg9
(lp532
(I2
I5
tp533
asg12
g8
sba(iclasses.towerAI
Action
p534
(dp535
g3
g15
sg5
(lp536
g533
asg7
g393
sg9
(lp537
(I2
I4
tp538
a(I3
I4
tp539
a(I2
I5
tp540
a(I3
I5
tp541
asg12
g53
sba(iclasses.towerAI
Action
p542
(dp543
g3
g298
sg5
(lp544
g64
asg7
Nsg9
Nsg12
g17
sba(iclasses.towerAI
Action
p545
(dp546
g3
g4
sg5
g6
sg7
g8
sg9
(lp547
(I2
I1
tp548
asg12
Nsba(iclasses.towerAI
Action
p549
(dp550
g3
g15
sg5
(lp551
g548
asg7
g53
sg9
(lp552
(I2
I1
tp553
asg12
g8
sba(iclasses.towerAI
Action
p554
(dp555
g3
g15
sg5
(lp556
g171
asg7
g53
sg9
(lp557
(I0
I3
tp558
asg12
g8
sba(iclasses.towerAI
Action
p559
(dp560
g3
g15
sg5
(lp561
g307
asg7
g53
sg9
(lp562
(I0
I2
tp563
asg12
g8
sba(iclasses.towerAI
Action
p564
(dp565
g3
g15
sg5
(lp566
g303
asg7
g53
sg9
(lp567
(I0
I1
tp568
asg12
g8
sba(iclasses.towerAI
Action
p569
(dp570
g3
g15
sg5
(lp571
g295
asg7
g53
sg9
(lp572
(I0
I0
tp573
asg12
g8
sba(iclasses.towerAI
Action
p574
(dp575
g3
g4
sg5
g6
sg7
g8
sg9
(lp576
(I2
I3
tp577
asg12
Nsba(iclasses.towerAI
Action
p578
(dp579
g3
g4
sg5
g6
sg7
g8
sg9
(lp580
(I3
I3
tp581
asg12
Nsba(iclasses.towerAI
Action
p582
(dp583
g3
g4
sg5
g6
sg7
g8
sg9
(lp584
(I5
I3
tp585
asg12
Nsba(iclasses.towerAI
Action
p586
(dp587
g3
g15
sg5
(lp588
g553
asg7
g393
sg9
(lp589
(I2
I1
tp590
a(I3
I1
tp591
a(I2
I2
tp592
a(I3
I2
tp593
asg12
g53
sba(iclasses.towerAI
Action
p594
(dp595
g3
g298
sg5
(lp596
g275
asg7
Nsg9
Nsg12
g8
sba(iclasses.towerAI
Action
p597
(dp598
g3
g298
sg5
(lp599
g271
asg7
Nsg9
Nsg12
g8
sba(iclasses.towerAI
Action
p600
(dp601
g3
g298
sg5
(lp602
g267
asg7
Nsg9
Nsg12
g8
sba(iclasses.towerAI
Action
p603
(dp604
g3
g298
sg5
(lp605
g279
asg7
Nsg9
Nsg12
g8
sba(iclasses.towerAI
Action
p606
(dp607
g3
g298
sg5
(lp608
g263
asg7
Nsg9
Nsg12
g8
sba(iclasses.towerAI
Action
p609
(dp610
g3
g298
sg5
(lp611
g259
asg7
Nsg9
Nsg12
g8
sba(iclasses.towerAI
Action
p612
(dp613
g3
g298
sg5
(lp614
g255
asg7
Nsg9
Nsg12
g8
sba(iclasses.towerAI
Action
p615
(dp616
g3
g298
sg5
(lp617
g251
asg7
Nsg9
Nsg12
g8
sba(iclasses.towerAI
Action
p618
(dp619
g3
g298
sg5
(lp620
g283
asg7
Nsg9
Nsg12
g8
sba(iclasses.towerAI
Action
p621
(dp622
g3
g298
sg5
(lp623
g247
asg7
Nsg9
Nsg12
g8
sba(iclasses.towerAI
Action
p624
(dp625
g3
g298
sg5
(lp626
g243
asg7
Nsg9
Nsg12
g8
sba(iclasses.towerAI
Action
p627
(dp628
g3
g298
sg5
(lp629
g239
asg7
Nsg9
Nsg12
g8
sba(iclasses.towerAI
Action
p630
(dp631
g3
g298
sg5
(lp632
g235
asg7
Nsg9
Nsg12
g8
sba(iclasses.towerAI
Action
p633
(dp634
g3
g298
sg5
(lp635
g231
asg7
Nsg9
Nsg12
g8
sba(iclasses.towerAI
Action
p636
(dp637
g3
g298
sg5
(lp638
g227
asg7
Nsg9
Nsg12
g8
sba(iclasses.towerAI
Action
p639
(dp640
g3
g298
sg5
(lp641
g223
asg7
Nsg9
Nsg12
g8
sba(iclasses.towerAI
Action
p642
(dp643
g3
g4
sg5
g6
sg7
g8
sg9
(lp644
(I5
I4
tp645
asg12
Nsba(iclasses.towerAI
Action
p646
(dp647
g3
g4
sg5
g6
sg7
g8
sg9
(lp648
(I5
I5
tp649
asg12
Nsba(iclasses.towerAI
Action
p650
(dp651
g3
g4
sg5
g6
sg7
g8
sg9
(lp652
(I5
I6
tp653
asg12
Nsba(iclasses.towerAI
Action
p654
(dp655
g3
g4
sg5
g6
sg7
g8
sg9
(lp656
(I5
I7
tp657
asg12
Nsba(iclasses.towerAI
Action
p658
(dp659
g3
g4
sg5
g6
sg7
g8
sg9
(lp660
(I5
I8
tp661
asg12
Nsba(iclasses.towerAI
Action
p662
(dp663
g3
g4
sg5
g6
sg7
g8
sg9
(lp664
(I5
I9
tp665
asg12
Nsba(iclasses.towerAI
Action
p666
(dp667
g3
g4
sg5
g6
sg7
g8
sg9
(lp668
(I5
I10
tp669
asg12
Nsba(iclasses.towerAI
Action
p670
(dp671
g3
g4
sg5
g6
sg7
g8
sg9
(lp672
(I5
I11
tp673
asg12
Nsba(iclasses.towerAI
Action
p674
(dp675
g3
g4
sg5
g6
sg7
g8
sg9
(lp676
(I5
I12
tp677
asg12
Nsba(iclasses.towerAI
Action
p678
(dp679
g3
g4
sg5
g6
sg7
g8
sg9
(lp680
(I5
I13
tp681
asg12
Nsba(iclasses.towerAI
Action
p682
(dp683
g3
g4
sg5
g6
sg7
g8
sg9
(lp684
(I5
I14
tp685
asg12
Nsba(iclasses.towerAI
Action
p686
(dp687
g3
g4
sg5
g6
sg7
g8
sg9
(lp688
(I5
I15
tp689
asg12
Nsba(iclasses.towerAI
Action
p690
(dp691
g3
g4
sg5
g6
sg7
g8
sg9
(lp692
(I5
I16
tp693
asg12
Nsba(iclasses.towerAI
Action
p694
(dp695
g3
g4
sg5
g6
sg7
g8
sg9
(lp696
(I7
I17
tp697
asg12
Nsba(iclasses.towerAI
Action
p698
(dp699
g3
g4
sg5
g6
sg7
g8
sg9
(lp700
(I7
I16
tp701
asg12
Nsba(iclasses.towerAI
Action
p702
(dp703
g3
g4
sg5
g6
sg7
g8
sg9
(lp704
(I9
I17
tp705
asg12
Nsba(iclasses.towerAI
Action
p706
(dp707
g3
g4
sg5
g6
sg7
g8
sg9
(lp708
(I9
I16
tp709
asg12
Nsba(iclasses.towerAI
Action
p710
(dp711
g3
g4
sg5
g6
sg7
g8
sg9
(lp712
(I7
I15
tp713
asg12
Nsba(iclasses.towerAI
Action
p714
(dp715
g3
g4
sg5
g6
sg7
g8
sg9
(lp716
(I9
I15
tp717
asg12
Nsba(iclasses.towerAI
Action
p718
(dp719
g3
g4
sg5
g6
sg7
g8
sg9
(lp720
(I7
I14
tp721
asg12
Nsba(iclasses.towerAI
Action
p722
(dp723
g3
g4
sg5
g6
sg7
g8
sg9
(lp724
(I9
I14
tp725
asg12
Nsba(iclasses.towerAI
Action
p726
(dp727
g3
g4
sg5
g6
sg7
g8
sg9
(lp728
(I7
I13
tp729
asg12
Nsba(iclasses.towerAI
Action
p730
(dp731
g3
g4
sg5
g6
sg7
g8
sg9
(lp732
(I9
I13
tp733
asg12
Nsba(iclasses.towerAI
Action
p734
(dp735
g3
g4
sg5
g6
sg7
g8
sg9
(lp736
(I7
I12
tp737
asg12
Nsba(iclasses.towerAI
Action
p738
(dp739
g3
g4
sg5
g6
sg7
g8
sg9
(lp740
(I9
I12
tp741
asg12
Nsba(iclasses.towerAI
Action
p742
(dp743
g3
g4
sg5
g6
sg7
g8
sg9
(lp744
(I9
I11
tp745
asg12
Nsba(iclasses.towerAI
Action
p746
(dp747
g3
g4
sg5
g6
sg7
g8
sg9
(lp748
(I7
I11
tp749
asg12
Nsba(iclasses.towerAI
Action
p750
(dp751
g3
g4
sg5
g6
sg7
g8
sg9
(lp752
(I7
I10
tp753
asg12
Nsba(iclasses.towerAI
Action
p754
(dp755
g3
g4
sg5
g6
sg7
g8
sg9
(lp756
(I9
I10
tp757
asg12
Nsba(iclasses.towerAI
Action
p758
(dp759
g3
g4
sg5
g6
sg7
g8
sg9
(lp760
(I9
I9
tp761
asg12
Nsba(iclasses.towerAI
Action
p762
(dp763
g3
g4
sg5
g6
sg7
g8
sg9
(lp764
(I7
I9
tp765
asg12
Nsba(iclasses.towerAI
Action
p766
(dp767
g3
g4
sg5
g6
sg7
g8
sg9
(lp768
(I7
I8
tp769
asg12
Nsba(iclasses.towerAI
Action
p770
(dp771
g3
g4
sg5
g6
sg7
g8
sg9
(lp772
(I9
I8
tp773
asg12
Nsba(iclasses.towerAI
Action
p774
(dp775
g3
g4
sg5
g6
sg7
g8
sg9
(lp776
(I9
I7
tp777
asg12
Nsba(iclasses.towerAI
Action
p778
(dp779
g3
g4
sg5
g6
sg7
g8
sg9
(lp780
(I7
I7
tp781
asg12
Nsba(iclasses.towerAI
Action
p782
(dp783
g3
g4
sg5
g6
sg7
g8
sg9
(lp784
(I7
I6
tp785
asg12
Nsba(iclasses.towerAI
Action
p786
(dp787
g3
g4
sg5
g6
sg7
g8
sg9
(lp788
(I9
I6
tp789
asg12
Nsba(iclasses.towerAI
Action
p790
(dp791
g3
g4
sg5
g6
sg7
g8
sg9
(lp792
(I9
I5
tp793
asg12
Nsba(iclasses.towerAI
Action
p794
(dp795
g3
g4
sg5
g6
sg7
g8
sg9
(lp796
(I7
I5
tp797
asg12
Nsba(iclasses.towerAI
Action
p798
(dp799
g3
g4
sg5
g6
sg7
g8
sg9
(lp800
(I7
I4
tp801
asg12
Nsba(iclasses.towerAI
Action
p802
(dp803
g3
g4
sg5
g6
sg7
g8
sg9
(lp804
(I9
I4
tp805
asg12
Nsba(iclasses.towerAI
Action
p806
(dp807
g3
g4
sg5
g6
sg7
g8
sg9
(lp808
(I9
I3
tp809
asg12
Nsba(iclasses.towerAI
Action
p810
(dp811
g3
g4
sg5
g6
sg7
g8
sg9
(lp812
(I7
I3
tp813
asg12
Nsba(iclasses.towerAI
Action
p814
(dp815
g3
g298
sg5
(lp816
g73
asg7
Nsg9
Nsg12
g53
sba(iclasses.towerAI
Action
p817
(dp818
g3
g298
sg5
(lp819
g82
asg7
Nsg9
Nsg12
g53
sba(iclasses.towerAI
Action
p820
(dp821
g3
g4
sg5
g6
sg7
g8
sg9
(lp822
(I5
I0
tp823
asg12
Nsba(iclasses.towerAI
Action
p824
(dp825
g3
g4
sg5
g6
sg7
g8
sg9
(lp826
(I7
I2
tp827
asg12
Nsba(iclasses.towerAI
Action
p828
(dp829
g3
g298
sg5
(lp830
g701
asg7
Nsg9
Nsg12
g8
sba(iclasses.towerAI
Action
p831
(dp832
g3
g15
sg5
(lp833
g697
asg7
g17
sg9
(lp834
(I7
I17
tp835
asg12
g8
sba(iclasses.towerAI
Action
p836
(dp837
g3
g15
sg5
(lp838
g835
asg7
g23
sg9
(lp839
(I7
I16
tp840
a(I8
I16
tp841
a(I7
I17
tp842
a(I8
I17
tp843
asg12
g17
sba(iclasses.towerAI
Action
p844
(dp845
g3
g4
sg5
g6
sg7
g8
sg9
(lp846
(I9
I2
tp847
asg12
Nsba(iclasses.towerAI
Action
p848
(dp849
g3
g15
sg5
(lp850
g713
asg7
g17
sg9
(lp851
(I7
I15
tp852
asg12
g8
sba(iclasses.towerAI
Action
p853
(dp854
g3
g298
sg5
(lp855
g721
asg7
Nsg9
Nsg12
g8
sba(iclasses.towerAI
Action
p856
(dp857
g3
g15
sg5
(lp858
g852
asg7
g366
sg9
(lp859
(I7
I14
tp860
a(I8
I14
tp861
a(I7
I15
tp862
a(I8
I15
tp863
asg12
g17
sba(iclasses.towerAI
Action
p864
(dp865
g3
g15
sg5
(lp866
g860
ag861
ag862
ag863
asg7
g375
sg9
(lp867
(I7
I14
tp868
a(I8
I14
tp869
a(I7
I15
tp870
a(I8
I15
tp871
asg12
g366
sba(iclasses.towerAI
Action
p872
(dp873
g3
g15
sg5
(lp874
g331
asg7
g441
sg9
(lp875
(I0
I14
tp876
asg12
g53
sba(iclasses.towerAI
Action
p877
(dp878
g3
g15
sg5
(lp879
g336
asg7
g441
sg9
(lp880
(I0
I13
tp881
asg12
g53
sba(iclasses.towerAI
Action
p882
(dp883
g3
g15
sg5
(lp884
g823
asg7
g53
sg9
(lp885
(I5
I0
tp886
asg12
g8
sba(iclasses.towerAI
Action
p887
(dp888
g3
g15
sg5
(lp889
g467
asg7
g53
sg9
(lp890
(I5
I1
tp891
asg12
g8
sba(iclasses.towerAI
Action
p892
(dp893
g3
g15
sg5
(lp894
g407
asg7
g53
sg9
(lp895
(I5
I2
tp896
asg12
g8
sba(iclasses.towerAI
Action
p897
(dp898
g3
g15
sg5
(lp899
g585
asg7
g53
sg9
(lp900
(I5
I3
tp901
asg12
g8
sba(iclasses.towerAI
Action
p902
(dp903
g3
g15
sg5
(lp904
g645
asg7
g53
sg9
(lp905
(I5
I4
tp906
asg12
g8
sba(iclasses.towerAI
Action
p907
(dp908
g3
g15
sg5
(lp909
g649
asg7
g53
sg9
(lp910
(I5
I5
tp911
asg12
g8
sba(iclasses.towerAI
Action
p912
(dp913
g3
g4
sg5
g6
sg7
g8
sg9
(lp914
(I10
I2
tp915
asg12
Nsba(iclasses.towerAI
Action
p916
(dp917
g3
g15
sg5
(lp918
g341
asg7
g441
sg9
(lp919
(I0
I12
tp920
asg12
g53
sba(iclasses.towerAI
Action
p921
(dp922
g3
g15
sg5
(lp923
g403
asg7
g441
sg9
(lp924
(I0
I11
tp925
asg12
g53
sba(iclasses.towerAI
Action
p926
(dp927
g3
g15
sg5
(lp928
g437
asg7
g441
sg9
(lp929
(I0
I10
tp930
asg12
g53
sba(iclasses.towerAI
Action
p931
(dp932
g3
g15
sg5
(lp933
g653
asg7
g53
sg9
(lp934
(I5
I6
tp935
asg12
g8
sba(iclasses.towerAI
Action
p936
(dp937
g3
g15
sg5
(lp938
g577
asg7
g53
sg9
(lp939
(I2
I3
tp940
asg12
g8
sba(iclasses.towerAI
Action
p941
(dp942
g3
g15
sg5
(lp943
g581
asg7
g53
sg9
(lp944
(I3
I3
tp945
asg12
g8
sba(iclasses.towerAI
Action
p946
(dp947
g3
g15
sg5
(lp948
g945
asg7
S'Monocyte'
p949
sg9
(lp950
(I3
I3
tp951
asg12
g53
sba(iclasses.towerAI
Action
p952
(dp953
g3
g15
sg5
(lp954
g940
asg7
S'Eosinophil'
p955
sg9
(lp956
(I2
I3
tp957
asg12
g53
sba(iclasses.towerAI
Action
p958
(dp959
g3
g15
sg5
(lp960
g448
asg7
g441
sg9
(lp961
(I0
I9
tp962
asg12
g53
sba(iclasses.towerAI
Action
p963
(dp964
g3
g15
sg5
(lp965
g657
asg7
g53
sg9
(lp966
(I5
I7
tp967
asg12
g8
sba(iclasses.towerAI
Action
p968
(dp969
g3
g4
sg5
g6
sg7
g8
sg9
(lp970
(I10
I3
tp971
asg12
Nsba(iclasses.towerAI
Action
p972
(dp973
g3
g15
sg5
(lp974
g453
asg7
g441
sg9
(lp975
(I0
I8
tp976
asg12
g53
sba(iclasses.towerAI
Action
p977
(dp978
g3
g298
sg5
(lp979
g957
asg7
Nsg9
Nsg12
g955
sba(iclasses.towerAI
Action
p980
(dp981
g3
g4
sg5
g6
sg7
g8
sg9
(lp982
(I2
I3
tp983
asg12
Nsba(iclasses.towerAI
Action
p984
(dp985
g3
g15
sg5
(lp986
g983
asg7
g53
sg9
(lp987
(I2
I3
tp988
asg12
g8
sba(iclasses.towerAI
Action
p989
(dp990
g3
g15
sg5
(lp991
g988
asg7
g949
sg9
(lp992
(I2
I3
tp993
asg12
g53
sba(iclasses.towerAI
Action
p994
(dp995
g3
g15
sg5
(lp996
g458
asg7
g441
sg9
(lp997
(I0
I7
tp998
asg12
g53
sba(iclasses.towerAI
Action
p999
(dp1000
g3
g15
sg5
(lp1001
g661
asg7
g53
sg9
(lp1002
(I5
I8
tp1003
asg12
g8
sba(iclasses.towerAI
Action
p1004
(dp1005
g3
g15
sg5
(lp1006
g665
asg7
g53
sg9
(lp1007
(I5
I9
tp1008
asg12
g8
sba(iclasses.towerAI
Action
p1009
(dp1010
g3
g15
sg5
(lp1011
g669
asg7
g53
sg9
(lp1012
(I5
I10
tp1013
asg12
g8
sba(iclasses.towerAI
Action
p1014
(dp1015
g3
g4
sg5
g6
sg7
g8
sg9
(lp1016
(I10
I4
tp1017
asg12
Nsba(iclasses.towerAI
Action
p1018
(dp1019
g3
g15
sg5
(lp1020
g729
asg7
g53
sg9
(lp1021
(I7
I13
tp1022
asg12
g8
sba(iclasses.towerAI
Action
p1023
(dp1024
g3
g298
sg5
(lp1025
g737
asg7
Nsg9
Nsg12
g8
sba(iclasses.towerAI
Action
p1026
(dp1027
g3
g15
sg5
(lp1028
g1022
asg7
g393
sg9
(lp1029
(I7
I12
tp1030
a(I8
I12
tp1031
a(I7
I13
tp1032
a(I8
I13
tp1033
asg12
g53
sba(iclasses.towerAI
Action
p1034
(dp1035
g3
g15
sg5
(lp1036
g749
asg7
g17
sg9
(lp1037
(I7
I11
tp1038
asg12
g8
sba(iclasses.towerAI
Action
p1039
(dp1040
g3
g298
sg5
(lp1041
g753
asg7
Nsg9
Nsg12
g8
sba(iclasses.towerAI
Action
p1042
(dp1043
g3
g15
sg5
(lp1044
g1038
asg7
g366
sg9
(lp1045
(I7
I10
tp1046
a(I8
I10
tp1047
a(I7
I11
tp1048
a(I8
I11
tp1049
asg12
g17
sba(iclasses.towerAI
Action
p1050
(dp1051
g3
g15
sg5
(lp1052
g1046
ag1047
ag1048
ag1049
asg7
g375
sg9
(lp1053
(I7
I10
tp1054
a(I8
I10
tp1055
a(I7
I11
tp1056
a(I8
I11
tp1057
asg12
g366
sba(iclasses.towerAI
Action
p1058
(dp1059
g3
g15
sg5
(lp1060
g673
asg7
g53
sg9
(lp1061
(I5
I11
tp1062
asg12
g8
sba(iclasses.towerAI
Action
p1063
(dp1064
g3
g15
sg5
(lp1065
g677
asg7
g53
sg9
(lp1066
(I5
I12
tp1067
asg12
g8
sba(iclasses.towerAI
Action
p1068
(dp1069
g3
g15
sg5
(lp1070
g681
asg7
g53
sg9
(lp1071
(I5
I13
tp1072
asg12
g8
sba(iclasses.towerAI
Action
p1073
(dp1074
g3
g15
sg5
(lp1075
g685
asg7
g53
sg9
(lp1076
(I5
I14
tp1077
asg12
g8
sba(iclasses.towerAI
Action
p1078
(dp1079
g3
g15
sg5
(lp1080
g463
asg7
g441
sg9
(lp1081
(I0
I6
tp1082
asg12
g53
sba(iclasses.towerAI
Action
p1083
(dp1084
g3
g15
sg5
(lp1085
g765
asg7
g53
sg9
(lp1086
(I7
I9
tp1087
asg12
g8
sba(iclasses.towerAI
Action
p1088
(dp1089
g3
g298
sg5
(lp1090
g769
asg7
Nsg9
Nsg12
g8
sba(iclasses.towerAI
Action
p1091
(dp1092
g3
g15
sg5
(lp1093
g1087
asg7
g393
sg9
(lp1094
(I7
I8
tp1095
a(I8
I8
tp1096
a(I7
I9
tp1097
a(I8
I9
tp1098
asg12
g53
sba(iclasses.towerAI
Action
p1099
(dp1100
g3
g15
sg5
(lp1101
g494
asg7
g441
sg9
(lp1102
(I0
I5
tp1103
asg12
g53
sba(iclasses.towerAI
Action
p1104
(dp1105
g3
g15
sg5
(lp1106
g689
asg7
g53
sg9
(lp1107
(I5
I15
tp1108
asg12
g8
sba(iclasses.towerAI
Action
p1109
(dp1110
g3
g15
sg5
(lp1111
g693
asg7
g53
sg9
(lp1112
(I5
I16
tp1113
asg12
g8
sba(iclasses.towerAI
Action
p1114
(dp1115
g3
g15
sg5
(lp1116
g915
asg7
g53
sg9
(lp1117
(I10
I2
tp1118
asg12
g8
sba(iclasses.towerAI
Action
p1119
(dp1120
g3
g4
sg5
g6
sg7
g8
sg9
(lp1121
(I10
I5
tp1122
asg12
Nsba(iclasses.towerAI
Action
p1123
(dp1124
g3
g15
sg5
(lp1125
g499
asg7
g441
sg9
(lp1126
(I0
I4
tp1127
asg12
g53
sba(iclasses.towerAI
Action
p1128
(dp1129
g3
g15
sg5
(lp1130
g781
asg7
g17
sg9
(lp1131
(I7
I7
tp1132
asg12
g8
sba(iclasses.towerAI
Action
p1133
(dp1134
g3
g298
sg5
(lp1135
g785
asg7
Nsg9
Nsg12
g8
sba(iclasses.towerAI
Action
p1136
(dp1137
g3
g15
sg5
(lp1138
g1132
asg7
g366
sg9
(lp1139
(I7
I6
tp1140
a(I8
I6
tp1141
a(I7
I7
tp1142
a(I8
I7
tp1143
asg12
g17
sba(iclasses.towerAI
Action
p1144
(dp1145
g3
g15
sg5
(lp1146
g1140
ag1141
ag1142
ag1143
asg7
g375
sg9
(lp1147
(I7
I6
tp1148
a(I8
I6
tp1149
a(I7
I7
tp1150
a(I8
I7
tp1151
asg12
g366
sba(iclasses.towerAI
Action
p1152
(dp1153
g3
g15
sg5
(lp1154
g558
asg7
g441
sg9
(lp1155
(I0
I3
tp1156
asg12
g53
sba(iclasses.towerAI
Action
p1157
(dp1158
g3
g15
sg5
(lp1159
g971
asg7
g53
sg9
(lp1160
(I10
I3
tp1161
asg12
g8
sba(iclasses.towerAI
Action
p1162
(dp1163
g3
g15
sg5
(lp1164
g1017
asg7
g53
sg9
(lp1165
(I10
I4
tp1166
asg12
g8
sba(iclasses.towerAI
Action
p1167
(dp1168
g3
g15
sg5
(lp1169
g1122
asg7
g53
sg9
(lp1170
(I10
I5
tp1171
asg12
g8
sba(iclasses.towerAI
Action
p1172
(dp1173
g3
g4
sg5
g6
sg7
g8
sg9
(lp1174
(I10
I6
tp1175
asg12
Nsba(iclasses.towerAI
Action
p1176
(dp1177
g3
g4
sg5
g6
sg7
g8
sg9
(lp1178
(I10
I7
tp1179
asg12
Nsba(iclasses.towerAI
Action
p1180
(dp1181
g3
g4
sg5
g6
sg7
g8
sg9
(lp1182
(I10
I8
tp1183
asg12
Nsba(iclasses.towerAI
Action
p1184
(dp1185
g3
g4
sg5
g6
sg7
g8
sg9
(lp1186
(I10
I9
tp1187
asg12
Nsba(iclasses.towerAI
Action
p1188
(dp1189
g3
g4
sg5
g6
sg7
g8
sg9
(lp1190
(I10
I10
tp1191
asg12
Nsba(iclasses.towerAI
Action
p1192
(dp1193
g3
g15
sg5
(lp1194
g563
asg7
g441
sg9
(lp1195
(I0
I2
tp1196
asg12
g53
sba(iclasses.towerAI
Action
p1197
(dp1198
g3
g15
sg5
(lp1199
g568
asg7
g441
sg9
(lp1200
(I0
I1
tp1201
asg12
g53
sba(iclasses.towerAI
Action
p1202
(dp1203
g3
g15
sg5
(lp1204
g573
asg7
g441
sg9
(lp1205
(I0
I0
tp1206
asg12
g53
sba(iclasses.towerAI
Action
p1207
(dp1208
g3
g4
sg5
g6
sg7
g8
sg9
(lp1209
(I10
I11
tp1210
asg12
Nsba(iclasses.towerAI
Action
p1211
(dp1212
g3
g4
sg5
g6
sg7
g8
sg9
(lp1213
(I10
I12
tp1214
asg12
Nsba(iclasses.towerAI
Action
p1215
(dp1216
g3
g4
sg5
g6
sg7
g8
sg9
(lp1217
(I10
I13
tp1218
asg12
Nsba(iclasses.towerAI
Action
p1219
(dp1220
g3
g4
sg5
g6
sg7
g8
sg9
(lp1221
(I10
I14
tp1222
asg12
Nsba(iclasses.towerAI
Action
p1223
(dp1224
g3
g4
sg5
g6
sg7
g8
sg9
(lp1225
(I10
I15
tp1226
asg12
Nsba(iclasses.towerAI
Action
p1227
(dp1228
g3
g4
sg5
g6
sg7
g8
sg9
(lp1229
(I10
I16
tp1230
asg12
Nsba(iclasses.towerAI
Action
p1231
(dp1232
g3
g4
sg5
g6
sg7
g8
sg9
(lp1233
(I12
I17
tp1234
asg12
Nsba(iclasses.towerAI
Action
p1235
(dp1236
g3
g15
sg5
(lp1237
g1175
asg7
g53
sg9
(lp1238
(I10
I6
tp1239
asg12
g8
sba(iclasses.towerAI
Action
p1240
(dp1241
g3
g15
sg5
(lp1242
g1179
asg7
g53
sg9
(lp1243
(I10
I7
tp1244
asg12
g8
sba(iclasses.towerAI
Action
p1245
(dp1246
g3
g15
sg5
(lp1247
g1183
asg7
g53
sg9
(lp1248
(I10
I8
tp1249
asg12
g8
sba(iclasses.towerAI
Action
p1250
(dp1251
g3
g15
sg5
(lp1252
g797
asg7
g53
sg9
(lp1253
(I7
I5
tp1254
asg12
g8
sba(iclasses.towerAI
Action
p1255
(dp1256
g3
g298
sg5
(lp1257
g801
asg7
Nsg9
Nsg12
g8
sba(iclasses.towerAI
Action
p1258
(dp1259
g3
g15
sg5
(lp1260
g1254
asg7
g393
sg9
(lp1261
(I7
I4
tp1262
a(I8
I4
tp1263
a(I7
I5
tp1264
a(I8
I5
tp1265
asg12
g53
sba(iclasses.towerAI
Action
p1266
(dp1267
g3
g298
sg5
(lp1268
g827
asg7
Nsg9
Nsg12
g8
sba(iclasses.towerAI
Action
p1269
(dp1270
g3
g298
sg5
(lp1271
g813
asg7
Nsg9
Nsg12
g8
sba(iclasses.towerAI
Action
p1272
(dp1273
g3
g298
sg5
(lp1274
g100
asg7
Nsg9
Nsg12
g53
sba(iclasses.towerAI
Action
p1275
(dp1276
g3
g15
sg5
(lp1277
g91
asg7
g393
sg9
(lp1278
(I7
I1
tp1279
a(I8
I1
tp1280
a(I7
I2
tp1281
a(I8
I2
tp1282
asg12
g53
sba(iclasses.towerAI
Action
p1283
(dp1284
g3
g4
sg5
g6
sg7
g8
sg9
(lp1285
(I7
I3
tp1286
asg12
Nsba(iclasses.towerAI
Action
p1287
(dp1288
g3
g4
sg5
g6
sg7
g8
sg9
(lp1289
(I8
I3
tp1290
asg12
Nsba(iclasses.towerAI
Action
p1291
(dp1292
g3
g15
sg5
(lp1293
g886
asg7
g441
sg9
(lp1294
(I5
I0
tp1295
asg12
g53
sba(iclasses.towerAI
Action
p1296
(dp1297
g3
g4
sg5
g6
sg7
g8
sg9
(lp1298
(I12
I16
tp1299
asg12
Nsba(iclasses.towerAI
Action
p1300
(dp1301
g3
g4
sg5
g6
sg7
g8
sg9
(lp1302
(I12
I15
tp1303
asg12
Nsba(iclasses.towerAI
Action
p1304
(dp1305
g3
g4
sg5
g6
sg7
g8
sg9
(lp1306
(I12
I14
tp1307
asg12
Nsba.