(lp0
(iclasses.towerAI
Action
p1
(dp2
S'action'
p3
S'buy'
p4
sS'tower_d_pos'
p5
(lp6
sS'tower'
p7
S'Stem Cell'
p8
sS'pos'
p9
(lp10
(I0
I1
tp11
asS'tower_d'
p12
Nsba(iclasses.towerAI
Action
p13
(dp14
g3
S'upgrade'
p15
sg5
(lp16
g11
asg7
S'Lymphocyte'
p17
sg9
(lp18
(I0
I1
tp19
asg12
g8
sba(iclasses.towerAI
Action
p20
(dp21
g3
g15
sg5
(lp22
g19
asg7
S'T-Cell'
p23
sg9
(lp24
(I0
I1
tp25
a(I1
I1
tp26
a(I0
I2
tp27
a(I1
I2
tp28
asg12
g17
sba(iclasses.towerAI
Action
p29
(dp30
g3
g4
sg5
g6
sg7
g8
sg9
(lp31
(I21
I1
tp32
asg12
Nsba(iclasses.towerAI
Action
p33
(dp34
g3
g15
sg5
(lp35
g32
asg7
g17
sg9
(lp36
(I20
I1
tp37
asg12
g8
sba(iclasses.towerAI
Action
p38
(dp39
g3
g15
sg5
(lp40
g37
asg7
g23
sg9
(lp41
(I20
I1
tp42
a(I21
I1
tp43
a(I20
I2
tp44
a(I21
I2
tp45
asg12
g17
sba(iclasses.towerAI
Action
p46
(dp47
g3
g4
sg5
g6
sg7
g8
sg9
(lp48
(I2
I1
tp49
asg12
Nsba(iclasses.towerAI
Action
p50
(dp51
g3
g4
sg5
g6
sg7
g8
sg9
(lp52
(I3
I1
tp53
asg12
Nsba(iclasses.towerAI
Action
p54
(dp55
g3
g4
sg5
g6
sg7
g8
sg9
(lp56
(I4
I1
tp57
asg12
Nsba(iclasses.towerAI
Action
p58
(dp59
g3
g4
sg5
g6
sg7
g8
sg9
(lp60
(I5
I1
tp61
asg12
Nsba(iclasses.towerAI
Action
p62
(dp63
g3
g4
sg5
g6
sg7
g8
sg9
(lp64
(I19
I1
tp65
asg12
Nsba(iclasses.towerAI
Action
p66
(dp67
g3
g4
sg5
g6
sg7
g8
sg9
(lp68
(I18
I1
tp69
asg12
Nsba(iclasses.towerAI
Action
p70
(dp71
g3
g4
sg5
g6
sg7
g8
sg9
(lp72
(I17
I1
tp73
asg12
Nsba(iclasses.towerAI
Action
p74
(dp75
g3
g4
sg5
g6
sg7
g8
sg9
(lp76
(I16
I1
tp77
asg12
Nsba(iclasses.towerAI
Action
p78
(dp79
g3
g4
sg5
g6
sg7
g8
sg9
(lp80
(I6
I1
tp81
asg12
Nsba(iclasses.towerAI
Action
p82
(dp83
g3
g4
sg5
g6
sg7
g8
sg9
(lp84
(I7
I1
tp85
asg12
Nsba(iclasses.towerAI
Action
p86
(dp87
g3
g15
sg5
(lp88
g49
asg7
g17
sg9
(lp89
(I2
I1
tp90
asg12
g8
sba(iclasses.towerAI
Action
p91
(dp92
g3
g15
sg5
(lp93
g53
asg7
g17
sg9
(lp94
(I3
I1
tp95
asg12
g8
sba(iclasses.towerAI
Action
p96
(dp97
g3
g15
sg5
(lp98
g57
asg7
g17
sg9
(lp99
(I4
I1
tp100
asg12
g8
sba(iclasses.towerAI
Action
p101
(dp102
g3
g15
sg5
(lp103
g61
asg7
g17
sg9
(lp104
(I5
I1
tp105
asg12
g8
sba(iclasses.towerAI
Action
p106
(dp107
g3
g15
sg5
(lp108
g81
asg7
g17
sg9
(lp109
(I6
I1
tp110
asg12
g8
sba(iclasses.towerAI
Action
p111
(dp112
g3
g15
sg5
(lp113
g85
asg7
g17
sg9
(lp114
(I7
I1
tp115
asg12
g8
sba(iclasses.towerAI
Action
p116
(dp117
g3
g15
sg5
(lp118
g65
asg7
g17
sg9
(lp119
(I19
I1
tp120
asg12
g8
sba(iclasses.towerAI
Action
p121
(dp122
g3
g15
sg5
(lp123
g69
asg7
g17
sg9
(lp124
(I18
I1
tp125
asg12
g8
sba(iclasses.towerAI
Action
p126
(dp127
g3
g15
sg5
(lp128
g73
asg7
g17
sg9
(lp129
(I17
I1
tp130
asg12
g8
sba(iclasses.towerAI
Action
p131
(dp132
g3
g15
sg5
(lp133
g77
asg7
g17
sg9
(lp134
(I16
I1
tp135
asg12
g8
sba(iclasses.towerAI
Action
p136
(dp137
g3
g4
sg5
g6
sg7
g8
sg9
(lp138
(I15
I1
tp139
asg12
Nsba(iclasses.towerAI
Action
p140
(dp141
g3
g4
sg5
g6
sg7
g8
sg9
(lp142
(I14
I1
tp143
asg12
Nsba(iclasses.towerAI
Action
p144
(dp145
g3
g4
sg5
g6
sg7
g8
sg9
(lp146
(I8
I1
tp147
asg12
Nsba(iclasses.towerAI
Action
p148
(dp149
g3
g15
sg5
(lp150
g139
asg7
g17
sg9
(lp151
(I15
I1
tp152
asg12
g8
sba(iclasses.towerAI
Action
p153
(dp154
g3
g15
sg5
(lp155
g143
asg7
g17
sg9
(lp156
(I14
I1
tp157
asg12
g8
sba(iclasses.towerAI
Action
p158
(dp159
g3
g4
sg5
g6
sg7
g8
sg9
(lp160
(I13
I1
tp161
asg12
Nsba(iclasses.towerAI
Action
p162
(dp163
g3
g4
sg5
g6
sg7
g8
sg9
(lp164
(I12
I1
tp165
asg12
Nsba(iclasses.towerAI
Action
p166
(dp167
g3
g4
sg5
g6
sg7
g8
sg9
(lp168
(I11
I1
tp169
asg12
Nsba(iclasses.towerAI
Action
p170
(dp171
g3
g4
sg5
g6
sg7
g8
sg9
(lp172
(I10
I1
tp173
asg12
Nsba(iclasses.towerAI
Action
p174
(dp175
g3
g15
sg5
(lp176
g147
asg7
g17
sg9
(lp177
(I8
I1
tp178
asg12
g8
sba(iclasses.towerAI
Action
p179
(dp180
g3
g15
sg5
(lp181
g178
asg7
S'B-Cell'
p182
sg9
(lp183
(I8
I1
tp184
a(I9
I1
tp185
a(I8
I2
tp186
a(I9
I2
tp187
asg12
g17
sba(iclasses.towerAI
Action
p188
(dp189
g3
g15
sg5
(lp190
g173
asg7
g17
sg9
(lp191
(I10
I1
tp192
asg12
g8
sba(iclasses.towerAI
Action
p193
(dp194
g3
g15
sg5
(lp195
g169
asg7
g17
sg9
(lp196
(I11
I1
tp197
asg12
g8
sba(iclasses.towerAI
Action
p198
(dp199
g3
g15
sg5
(lp200
g165
asg7
g17
sg9
(lp201
(I12
I1
tp202
asg12
g8
sba(iclasses.towerAI
Action
p203
(dp204
g3
g15
sg5
(lp205
g161
asg7
g17
sg9
(lp206
(I13
I1
tp207
asg12
g8
sba(iclasses.towerAI
Action
p208
(dp209
g3
g4
sg5
g6
sg7
g8
sg9
(lp210
(I0
I3
tp211
asg12
Nsba(iclasses.towerAI
Action
p212
(dp213
g3
g4
sg5
g6
sg7
g8
sg9
(lp214
(I0
I4
tp215
asg12
Nsba(iclasses.towerAI
Action
p216
(dp217
g3
g4
sg5
g6
sg7
g8
sg9
(lp218
(I0
I5
tp219
asg12
Nsba(iclasses.towerAI
Action
p220
(dp221
g3
g4
sg5
g6
sg7
g8
sg9
(lp222
(I0
I6
tp223
asg12
Nsba(iclasses.towerAI
Action
p224
(dp225
g3
g4
sg5
g6
sg7
g8
sg9
(lp226
(I0
I7
tp227
asg12
Nsba(iclasses.towerAI
Action
p228
(dp229
g3
g4
sg5
g6
sg7
g8
sg9
(lp230
(I0
I8
tp231
asg12
Nsba(iclasses.towerAI
Action
p232
(dp233
g3
g4
sg5
g6
sg7
g8
sg9
(lp234
(I0
I9
tp235
asg12
Nsba(iclasses.towerAI
Action
p236
(dp237
g3
g4
sg5
g6
sg7
g8
sg9
(lp238
(I0
I11
tp239
asg12
Nsba(iclasses.towerAI
Action
p240
(dp241
g3
g4
sg5
g6
sg7
g8
sg9
(lp242
(I0
I10
tp243
asg12
Nsba(iclasses.towerAI
Action
p244
(dp245
g3
g4
sg5
g6
sg7
g8
sg9
(lp246
(I0
I12
tp247
asg12
Nsba(iclasses.towerAI
Action
p248
(dp249
g3
g4
sg5
g6
sg7
g8
sg9
(lp250
(I0
I13
tp251
asg12
Nsba(iclasses.towerAI
Action
p252
(dp253
g3
g4
sg5
g6
sg7
g8
sg9
(lp254
(I0
I14
tp255
asg12
Nsba(iclasses.towerAI
Action
p256
(dp257
g3
g4
sg5
g6
sg7
g8
sg9
(lp258
(I0
I15
tp259
asg12
Nsba(iclasses.towerAI
Action
p260
(dp261
g3
g4
sg5
g6
sg7
g8
sg9
(lp262
(I0
I16
tp263
asg12
Nsba(iclasses.towerAI
Action
p264
(dp265
g3
g4
sg5
g6
sg7
g8
sg9
(lp266
(I2
I17
tp267
asg12
Nsba(iclasses.towerAI
Action
p268
(dp269
g3
g4
sg5
g6
sg7
g8
sg9
(lp270
(I2
I15
tp271
asg12
Nsba(iclasses.towerAI
Action
p272
(dp273
g3
g4
sg5
g6
sg7
g8
sg9
(lp274
(I2
I16
tp275
asg12
Nsba(iclasses.towerAI
Action
p276
(dp277
g3
g4
sg5
g6
sg7
g8
sg9
(lp278
(I2
I14
tp279
asg12
Nsba(iclasses.towerAI
Action
p280
(dp281
g3
g4
sg5
g6
sg7
g8
sg9
(lp282
(I2
I13
tp283
asg12
Nsba(iclasses.towerAI
Action
p284
(dp285
g3
g4
sg5
g6
sg7
g8
sg9
(lp286
(I2
I12
tp287
asg12
Nsba(iclasses.towerAI
Action
p288
(dp289
g3
g4
sg5
g6
sg7
g8
sg9
(lp290
(I2
I11
tp291
asg12
Nsba(iclasses.towerAI
Action
p292
(dp293
g3
g4
sg5
g6
sg7
g8
sg9
(lp294
(I2
I10
tp295
asg12
Nsba(iclasses.towerAI
Action
p296
(dp297
g3
g4
sg5
g6
sg7
g8
sg9
(lp298
(I2
I9
tp299
asg12
Nsba(iclasses.towerAI
Action
p300
(dp301
g3
g4
sg5
g6
sg7
g8
sg9
(lp302
(I2
I8
tp303
asg12
Nsba(iclasses.towerAI
Action
p304
(dp305
g3
g4
sg5
g6
sg7
g8
sg9
(lp306
(I2
I7
tp307
asg12
Nsba(iclasses.towerAI
Action
p308
(dp309
g3
g4
sg5
g6
sg7
g8
sg9
(lp310
(I2
I6
tp311
asg12
Nsba(iclasses.towerAI
Action
p312
(dp313
g3
g4
sg5
g6
sg7
g8
sg9
(lp314
(I2
I5
tp315
asg12
Nsba(iclasses.towerAI
Action
p316
(dp317
g3
g4
sg5
g6
sg7
g8
sg9
(lp318
(I2
I4
tp319
asg12
Nsba(iclasses.towerAI
Action
p320
(dp321
g3
g4
sg5
g6
sg7
g8
sg9
(lp322
(I2
I3
tp323
asg12
Nsba(iclasses.towerAI
Action
p324
(dp325
g3
g4
sg5
g6
sg7
g8
sg9
(lp326
(I2
I2
tp327
asg12
Nsba(iclasses.towerAI
Action
p328
(dp329
g3
S'sell'
p330
sg5
(lp331
g267
asg7
Nsg9
Nsg12
g8
sba(iclasses.towerAI
Action
p332
(dp333
g3
g15
sg5
(lp334
g275
asg7
S'Granulocyte'
p335
sg9
(lp336
(I2
I16
tp337
asg12
g8
sba(iclasses.towerAI
Action
p338
(dp339
g3
g15
sg5
(lp340
g337
asg7
S'Neutrophil'
p341
sg9
(lp342
(I2
I16
tp343
a(I3
I16
tp344
a(I2
I17
tp345
a(I3
I17
tp346
asg12
g335
sba(iclasses.towerAI
Action
p347
(dp348
g3
g330
sg5
(lp349
g271
asg7
Nsg9
Nsg12
g8
sba(iclasses.towerAI
Action
p350
(dp351
g3
g15
sg5
(lp352
g279
asg7
g17
sg9
(lp353
(I2
I14
tp354
asg12
g8
sba.