(lp0
(iclasses.towerAI
Action
p1
(dp2
S'action'
p3
S'buy'
p4
sS'tower_d_pos'
p5
(lp6
sS'tower'
p7
S'Stem Cell'
p8
sS'pos'
p9
(lp10
(I0
I0
tp11
asS'tower_d'
p12
Nsba(iclasses.towerAI
Action
p13
(dp14
g3
g4
sg5
g6
sg7
g8
sg9
(lp15
(I2
I0
tp16
asg12
Nsba(iclasses.towerAI
Action
p17
(dp18
g3
g4
sg5
g6
sg7
g8
sg9
(lp19
(I21
I0
tp20
asg12
Nsba(iclasses.towerAI
Action
p21
(dp22
g3
g4
sg5
g6
sg7
g8
sg9
(lp23
(I20
I0
tp24
asg12
Nsba(iclasses.towerAI
Action
p25
(dp26
g3
g4
sg5
g6
sg7
g8
sg9
(lp27
(I18
I0
tp28
asg12
Nsba(iclasses.towerAI
Action
p29
(dp30
g3
g4
sg5
g6
sg7
g8
sg9
(lp31
(I17
I0
tp32
asg12
Nsba(iclasses.towerAI
Action
p33
(dp34
g3
g4
sg5
g6
sg7
g8
sg9
(lp35
(I15
I0
tp36
asg12
Nsba(iclasses.towerAI
Action
p37
(dp38
g3
g4
sg5
g6
sg7
g8
sg9
(lp39
(I14
I0
tp40
asg12
Nsba(iclasses.towerAI
Action
p41
(dp42
g3
g4
sg5
g6
sg7
g8
sg9
(lp43
(I3
I0
tp44
asg12
Nsba(iclasses.towerAI
Action
p45
(dp46
g3
g4
sg5
g6
sg7
g8
sg9
(lp47
(I16
I0
tp48
asg12
Nsba(iclasses.towerAI
Action
p49
(dp50
g3
S'upgrade'
p51
sg5
(lp52
g24
asg7
S'Lymphocyte'
p53
sg9
(lp54
(I19
I0
tp55
asg12
g8
sba(iclasses.towerAI
Action
p56
(dp57
g3
g51
sg5
(lp58
g20
asg7
g53
sg9
(lp59
(I20
I0
tp60
asg12
g8
sba(iclasses.towerAI
Action
p61
(dp62
g3
g51
sg5
(lp63
g60
asg7
S'T-Cell'
p64
sg9
(lp65
(I20
I2
tp66
a(I21
I2
tp67
a(I20
I3
tp68
a(I21
I3
tp69
asg12
g53
sba(iclasses.towerAI
Action
p70
(dp71
g3
g51
sg5
(lp72
g11
asg7
g53
sg9
(lp73
(I0
I0
tp74
asg12
g8
sba(iclasses.towerAI
Action
p75
(dp76
g3
g51
sg5
(lp77
g16
asg7
g53
sg9
(lp78
(I1
I0
tp79
asg12
g8
sba(iclasses.towerAI
Action
p80
(dp81
g3
g51
sg5
(lp82
g44
asg7
g53
sg9
(lp83
(I2
I0
tp84
asg12
g8
sba(iclasses.towerAI
Action
p85
(dp86
g3
g51
sg5
(lp87
g40
asg7
g53
sg9
(lp88
(I3
I0
tp89
asg12
g8
sba(iclasses.towerAI
Action
p90
(dp91
g3
g51
sg5
(lp92
g74
asg7
g64
sg9
(lp93
(I1
I2
tp94
a(I2
I2
tp95
a(I1
I3
tp96
a(I2
I3
tp97
asg12
g53
sba(iclasses.towerAI
Action
p98
(dp99
g3
g51
sg5
(lp100
g36
asg7
g53
sg9
(lp101
(I4
I0
tp102
asg12
g8
sba(iclasses.towerAI
Action
p103
(dp104
g3
g51
sg5
(lp105
g28
asg7
g53
sg9
(lp106
(I21
I0
tp107
asg12
g8
sba(iclasses.towerAI
Action
p108
(dp109
g3
g51
sg5
(lp110
g32
asg7
g53
sg9
(lp111
(I20
I0
tp112
asg12
g8
sba(iclasses.towerAI
Action
p113
(dp114
g3
g51
sg5
(lp115
g48
asg7
g53
sg9
(lp116
(I18
I0
tp117
asg12
g8
sba(iclasses.towerAI
Action
p118
(dp119
g3
g4
sg5
g6
sg7
g8
sg9
(lp120
(I17
I0
tp121
asg12
Nsba(iclasses.towerAI
Action
p122
(dp123
g3
g4
sg5
g6
sg7
g8
sg9
(lp124
(I16
I0
tp125
asg12
Nsba(iclasses.towerAI
Action
p126
(dp127
g3
g4
sg5
g6
sg7
g8
sg9
(lp128
(I15
I0
tp129
asg12
Nsba(iclasses.towerAI
Action
p130
(dp131
g3
g4
sg5
g6
sg7
g8
sg9
(lp132
(I14
I0
tp133
asg12
Nsba(iclasses.towerAI
Action
p134
(dp135
g3
g4
sg5
g6
sg7
g8
sg9
(lp136
(I5
I0
tp137
asg12
Nsba(iclasses.towerAI
Action
p138
(dp139
g3
g51
sg5
(lp140
g137
asg7
g53
sg9
(lp141
(I5
I0
tp142
asg12
g8
sba(iclasses.towerAI
Action
p143
(dp144
g3
g51
sg5
(lp145
g133
asg7
g53
sg9
(lp146
(I14
I0
tp147
asg12
g8
sba(iclasses.towerAI
Action
p148
(dp149
g3
g51
sg5
(lp150
g121
asg7
g53
sg9
(lp151
(I17
I0
tp152
asg12
g8
sba(iclasses.towerAI
Action
p153
(dp154
g3
g51
sg5
(lp155
g125
asg7
g53
sg9
(lp156
(I16
I0
tp157
asg12
g8
sba(iclasses.towerAI
Action
p158
(dp159
g3
g4
sg5
g6
sg7
g8
sg9
(lp160
(I6
I0
tp161
asg12
Nsba(iclasses.towerAI
Action
p162
(dp163
g3
g4
sg5
g6
sg7
g8
sg9
(lp164
(I7
I0
tp165
asg12
Nsba(iclasses.towerAI
Action
p166
(dp167
g3
g4
sg5
g6
sg7
g8
sg9
(lp168
(I8
I0
tp169
asg12
Nsba(iclasses.towerAI
Action
p170
(dp171
g3
g4
sg5
g6
sg7
g8
sg9
(lp172
(I9
I0
tp173
asg12
Nsba(iclasses.towerAI
Action
p174
(dp175
g3
g4
sg5
g6
sg7
g8
sg9
(lp176
(I11
I0
tp177
asg12
Nsba(iclasses.towerAI
Action
p178
(dp179
g3
g4
sg5
g6
sg7
g8
sg9
(lp180
(I12
I0
tp181
asg12
Nsba(iclasses.towerAI
Action
p182
(dp183
g3
g4
sg5
g6
sg7
g8
sg9
(lp184
(I13
I0
tp185
asg12
Nsba(iclasses.towerAI
Action
p186
(dp187
g3
g4
sg5
g6
sg7
g8
sg9
(lp188
(I10
I0
tp189
asg12
Nsba(iclasses.towerAI
Action
p190
(dp191
g3
g51
sg5
(lp192
g129
asg7
S'Granulocyte'
p193
sg9
(lp194
(I3
I2
tp195
asg12
g8
sba(iclasses.towerAI
Action
p196
(dp197
g3
g51
sg5
(lp198
g185
asg7
g53
sg9
(lp199
(I4
I2
tp200
asg12
g8
sba(iclasses.towerAI
Action
p201
(dp202
g3
g51
sg5
(lp203
g200
asg7
S'B-Cell'
p204
sg9
(lp205
(I4
I2
tp206
a(I5
I2
tp207
a(I4
I3
tp208
a(I5
I3
tp209
asg12
g53
sba(iclasses.towerAI
Action
p210
(dp211
g3
g51
sg5
(lp212
g181
asg7
g53
sg9
(lp213
(I6
I2
tp214
asg12
g8
sba(iclasses.towerAI
Action
p215
(dp216
g3
g51
sg5
(lp217
g214
asg7
S'Natural Killer Cell'
p218
sg9
(lp219
(I6
I2
tp220
a(I7
I2
tp221
a(I6
I3
tp222
a(I7
I3
tp223
asg12
g53
sba(iclasses.towerAI
Action
p224
(dp225
g3
g51
sg5
(lp226
g177
asg7
g53
sg9
(lp227
(I8
I2
tp228
asg12
g8
sba.