(lp0
(iclasses.towerAI
Action
p1
(dp2
S'action'
p3
S'buy'
p4
sS'tower_d_pos'
p5
(lp6
sS'tower'
p7
S'Stem Cell'
p8
sS'pos'
p9
(lp10
(I0
I1
tp11
asS'tower_d'
p12
Nsba(iclasses.towerAI
Action
p13
(dp14
g3
g4
sg5
g6
sg7
g8
sg9
(lp15
(I1
I1
tp16
asg12
Nsba(iclasses.towerAI
Action
p17
(dp18
g3
g4
sg5
g6
sg7
g8
sg9
(lp19
(I2
I1
tp20
asg12
Nsba(iclasses.towerAI
Action
p21
(dp22
g3
g4
sg5
g6
sg7
g8
sg9
(lp23
(I3
I1
tp24
asg12
Nsba(iclasses.towerAI
Action
p25
(dp26
g3
g4
sg5
g6
sg7
g8
sg9
(lp27
(I5
I1
tp28
asg12
Nsba(iclasses.towerAI
Action
p29
(dp30
g3
g4
sg5
g6
sg7
g8
sg9
(lp31
(I4
I1
tp32
asg12
Nsba(iclasses.towerAI
Action
p33
(dp34
g3
g4
sg5
g6
sg7
g8
sg9
(lp35
(I6
I1
tp36
asg12
Nsba(iclasses.towerAI
Action
p37
(dp38
g3
g4
sg5
g6
sg7
g8
sg9
(lp39
(I7
I1
tp40
asg12
Nsba(iclasses.towerAI
Action
p41
(dp42
g3
g4
sg5
g6
sg7
g8
sg9
(lp43
(I8
I1
tp44
asg12
Nsba(iclasses.towerAI
Action
p45
(dp46
g3
g4
sg5
g6
sg7
g8
sg9
(lp47
(I9
I1
tp48
asg12
Nsba(iclasses.towerAI
Action
p49
(dp50
g3
g4
sg5
g6
sg7
g8
sg9
(lp51
(I10
I1
tp52
asg12
Nsba(iclasses.towerAI
Action
p53
(dp54
g3
g4
sg5
g6
sg7
g8
sg9
(lp55
(I11
I1
tp56
asg12
Nsba(iclasses.towerAI
Action
p57
(dp58
g3
g4
sg5
g6
sg7
g8
sg9
(lp59
(I21
I1
tp60
asg12
Nsba(iclasses.towerAI
Action
p61
(dp62
g3
S'upgrade'
p63
sg5
(lp64
g16
asg7
S'Lymphocyte'
p65
sg9
(lp66
(I20
I1
tp67
asg12
g8
sba(iclasses.towerAI
Action
p68
(dp69
g3
g63
sg5
(lp70
g11
asg7
g65
sg9
(lp71
(I0
I1
tp72
asg12
g8
sba(iclasses.towerAI
Action
p73
(dp74
g3
g63
sg5
(lp75
g72
asg7
S'T-Cell'
p76
sg9
(lp77
(I0
I1
tp78
a(I1
I1
tp79
a(I0
I2
tp80
a(I1
I2
tp81
asg12
g65
sba(iclasses.towerAI
Action
p82
(dp83
g3
g63
sg5
(lp84
g20
asg7
g65
sg9
(lp85
(I2
I1
tp86
asg12
g8
sba(iclasses.towerAI
Action
p87
(dp88
g3
g63
sg5
(lp89
g24
asg7
g65
sg9
(lp90
(I3
I1
tp91
asg12
g8
sba(iclasses.towerAI
Action
p92
(dp93
g3
g63
sg5
(lp94
g32
asg7
g65
sg9
(lp95
(I4
I1
tp96
asg12
g8
sba(iclasses.towerAI
Action
p97
(dp98
g3
g63
sg5
(lp99
g28
asg7
g65
sg9
(lp100
(I5
I1
tp101
asg12
g8
sba(iclasses.towerAI
Action
p102
(dp103
g3
g63
sg5
(lp104
g36
asg7
g65
sg9
(lp105
(I6
I1
tp106
asg12
g8
sba(iclasses.towerAI
Action
p107
(dp108
g3
g63
sg5
(lp109
g40
asg7
g65
sg9
(lp110
(I7
I1
tp111
asg12
g8
sba(iclasses.towerAI
Action
p112
(dp113
g3
g63
sg5
(lp114
g44
asg7
g65
sg9
(lp115
(I8
I1
tp116
asg12
g8
sba(iclasses.towerAI
Action
p117
(dp118
g3
g63
sg5
(lp119
g48
asg7
g65
sg9
(lp120
(I9
I1
tp121
asg12
g8
sba(iclasses.towerAI
Action
p122
(dp123
g3
g63
sg5
(lp124
g52
asg7
g65
sg9
(lp125
(I10
I1
tp126
asg12
g8
sba(iclasses.towerAI
Action
p127
(dp128
g3
g63
sg5
(lp129
g56
asg7
g65
sg9
(lp130
(I11
I1
tp131
asg12
g8
sba(iclasses.towerAI
Action
p132
(dp133
g3
g63
sg5
(lp134
g60
asg7
g65
sg9
(lp135
(I21
I1
tp136
asg12
g8
sba(iclasses.towerAI
Action
p137
(dp138
g3
g4
sg5
g6
sg7
g8
sg9
(lp139
(I19
I1
tp140
asg12
Nsba(iclasses.towerAI
Action
p141
(dp142
g3
g63
sg5
(lp143
g140
asg7
g65
sg9
(lp144
(I19
I1
tp145
asg12
g8
sba(iclasses.towerAI
Action
p146
(dp147
g3
g4
sg5
g6
sg7
g8
sg9
(lp148
(I18
I1
tp149
asg12
Nsba(iclasses.towerAI
Action
p150
(dp151
g3
g63
sg5
(lp152
g149
asg7
g65
sg9
(lp153
(I18
I1
tp154
asg12
g8
sba(iclasses.towerAI
Action
p155
(dp156
g3
g4
sg5
g6
sg7
g8
sg9
(lp157
(I17
I1
tp158
asg12
Nsba(iclasses.towerAI
Action
p159
(dp160
g3
S'go'
p161
sg5
g6
sg7
Nsg9
Nsg12
Nsba(iclasses.towerAI
Action
p162
(dp163
g3
g4
sg5
g6
sg7
g8
sg9
(lp164
(I12
I1
tp165
asg12
Nsba(iclasses.towerAI
Action
p166
(dp167
g3
g4
sg5
g6
sg7
g8
sg9
(lp168
(I13
I1
tp169
asg12
Nsba(iclasses.towerAI
Action
p170
(dp171
g3
g4
sg5
g6
sg7
g8
sg9
(lp172
(I14
I1
tp173
asg12
Nsba(iclasses.towerAI
Action
p174
(dp175
g3
g4
sg5
g6
sg7
g8
sg9
(lp176
(I15
I1
tp177
asg12
Nsba(iclasses.towerAI
Action
p178
(dp179
g3
g4
sg5
g6
sg7
g8
sg9
(lp180
(I16
I1
tp181
asg12
Nsba(iclasses.towerAI
Action
p182
(dp183
g3
g4
sg5
g6
sg7
g8
sg9
(lp184
(I0
I3
tp185
asg12
Nsba(iclasses.towerAI
Action
p186
(dp187
g3
g4
sg5
g6
sg7
g8
sg9
(lp188
(I0
I4
tp189
asg12
Nsba(iclasses.towerAI
Action
p190
(dp191
g3
g4
sg5
g6
sg7
g8
sg9
(lp192
(I0
I5
tp193
asg12
Nsba(iclasses.towerAI
Action
p194
(dp195
g3
g4
sg5
g6
sg7
g8
sg9
(lp196
(I0
I6
tp197
asg12
Nsba(iclasses.towerAI
Action
p198
(dp199
g3
g4
sg5
g6
sg7
g8
sg9
(lp200
(I0
I7
tp201
asg12
Nsba(iclasses.towerAI
Action
p202
(dp203
g3
g4
sg5
g6
sg7
g8
sg9
(lp204
(I0
I8
tp205
asg12
Nsba(iclasses.towerAI
Action
p206
(dp207
g3
g4
sg5
g6
sg7
g8
sg9
(lp208
(I0
I9
tp209
asg12
Nsba(iclasses.towerAI
Action
p210
(dp211
g3
g4
sg5
g6
sg7
g8
sg9
(lp212
(I0
I10
tp213
asg12
Nsba(iclasses.towerAI
Action
p214
(dp215
g3
g4
sg5
g6
sg7
g8
sg9
(lp216
(I0
I11
tp217
asg12
Nsba(iclasses.towerAI
Action
p218
(dp219
g3
g4
sg5
g6
sg7
g8
sg9
(lp220
(I0
I13
tp221
asg12
Nsba(iclasses.towerAI
Action
p222
(dp223
g3
g4
sg5
g6
sg7
g8
sg9
(lp224
(I0
I12
tp225
asg12
Nsba(iclasses.towerAI
Action
p226
(dp227
g3
g4
sg5
g6
sg7
g8
sg9
(lp228
(I0
I14
tp229
asg12
Nsba(iclasses.towerAI
Action
p230
(dp231
g3
g4
sg5
g6
sg7
g8
sg9
(lp232
(I0
I15
tp233
asg12
Nsba(iclasses.towerAI
Action
p234
(dp235
g3
g4
sg5
g6
sg7
g8
sg9
(lp236
(I0
I16
tp237
asg12
Nsba(iclasses.towerAI
Action
p238
(dp239
g3
g4
sg5
g6
sg7
g8
sg9
(lp240
(I2
I17
tp241
asg12
Nsba(iclasses.towerAI
Action
p242
(dp243
g3
g4
sg5
g6
sg7
g8
sg9
(lp244
(I2
I16
tp245
asg12
Nsba(iclasses.towerAI
Action
p246
(dp247
g3
g4
sg5
g6
sg7
g8
sg9
(lp248
(I2
I15
tp249
asg12
Nsba(iclasses.towerAI
Action
p250
(dp251
g3
g4
sg5
g6
sg7
g8
sg9
(lp252
(I2
I14
tp253
asg12
Nsba(iclasses.towerAI
Action
p254
(dp255
g3
g63
sg5
(lp256
g158
asg7
g65
sg9
(lp257
(I17
I1
tp258
asg12
g8
sba(iclasses.towerAI
Action
p259
(dp260
g3
g63
sg5
(lp261
g165
asg7
g65
sg9
(lp262
(I12
I1
tp263
asg12
g8
sba(iclasses.towerAI
Action
p264
(dp265
g3
g63
sg5
(lp266
g169
asg7
g65
sg9
(lp267
(I13
I1
tp268
asg12
g8
sba(iclasses.towerAI
Action
p269
(dp270
g3
g63
sg5
(lp271
g177
asg7
g65
sg9
(lp272
(I15
I1
tp273
asg12
g8
sba(iclasses.towerAI
Action
p274
(dp275
g3
g63
sg5
(lp276
g173
asg7
g65
sg9
(lp277
(I14
I1
tp278
asg12
g8
sba(iclasses.towerAI
Action
p279
(dp280
g3
g63
sg5
(lp281
g181
asg7
g65
sg9
(lp282
(I16
I1
tp283
asg12
g8
sba(iclasses.towerAI
Action
p284
(dp285
g3
g161
sg5
g6
sg7
Nsg9
Nsg12
Nsba(iclasses.towerAI
Action
p286
(dp287
g3
g4
sg5
g6
sg7
g8
sg9
(lp288
(I2
I13
tp289
asg12
Nsba(iclasses.towerAI
Action
p290
(dp291
g3
g4
sg5
g6
sg7
g8
sg9
(lp292
(I2
I12
tp293
asg12
Nsba(iclasses.towerAI
Action
p294
(dp295
g3
g4
sg5
g6
sg7
g8
sg9
(lp296
(I2
I10
tp297
asg12
Nsba(iclasses.towerAI
Action
p298
(dp299
g3
g4
sg5
g6
sg7
g8
sg9
(lp300
(I2
I11
tp301
asg12
Nsba(iclasses.towerAI
Action
p302
(dp303
g3
g4
sg5
g6
sg7
g8
sg9
(lp304
(I2
I9
tp305
asg12
Nsba(iclasses.towerAI
Action
p306
(dp307
g3
g4
sg5
g6
sg7
g8
sg9
(lp308
(I2
I8
tp309
asg12
Nsba(iclasses.towerAI
Action
p310
(dp311
g3
g4
sg5
g6
sg7
g8
sg9
(lp312
(I2
I7
tp313
asg12
Nsba(iclasses.towerAI
Action
p314
(dp315
g3
g4
sg5
g6
sg7
g8
sg9
(lp316
(I2
I6
tp317
asg12
Nsba(iclasses.towerAI
Action
p318
(dp319
g3
g4
sg5
g6
sg7
g8
sg9
(lp320
(I2
I5
tp321
asg12
Nsba(iclasses.towerAI
Action
p322
(dp323
g3
g4
sg5
g6
sg7
g8
sg9
(lp324
(I2
I4
tp325
asg12
Nsba(iclasses.towerAI
Action
p326
(dp327
g3
g4
sg5
g6
sg7
g8
sg9
(lp328
(I2
I3
tp329
asg12
Nsba(iclasses.towerAI
Action
p330
(dp331
g3
g4
sg5
g6
sg7
g8
sg9
(lp332
(I2
I2
tp333
asg12
Nsba(iclasses.towerAI
Action
p334
(dp335
g3
S'sell'
p336
sg5
(lp337
g78
ag79
ag80
ag81
asg7
Nsg9
Nsg12
g76
sba(iclasses.towerAI
Action
p338
(dp339
g3
g63
sg5
(lp340
g241
asg7
g65
sg9
(lp341
(I2
I17
tp342
asg12
g8
sba(iclasses.towerAI
Action
p343
(dp344
g3
g336
sg5
(lp345
g245
asg7
Nsg9
Nsg12
g8
sba(iclasses.towerAI
Action
p346
(dp347
g3
g63
sg5
(lp348
g342
asg7
S'Natural Killer Cell'
p349
sg9
(lp350
(I2
I16
tp351
a(I3
I16
tp352
a(I2
I17
tp353
a(I3
I17
tp354
asg12
g65
sba(iclasses.towerAI
Action
p355
(dp356
g3
g336
sg5
(lp357
g249
asg7
Nsg9
Nsg12
g8
sba(iclasses.towerAI
Action
p358
(dp359
g3
g63
sg5
(lp360
g253
asg7
g65
sg9
(lp361
(I2
I14
tp362
asg12
g8
sba(iclasses.towerAI
Action
p363
(dp364
g3
g63
sg5
(lp365
g362
asg7
g76
sg9
(lp366
(I2
I14
tp367
a(I3
I14
tp368
a(I2
I15
tp369
a(I3
I15
tp370
asg12
g65
sba(iclasses.towerAI
Action
p371
(dp372
g3
g63
sg5
(lp373
g289
asg7
g65
sg9
(lp374
(I2
I13
tp375
asg12
g8
sba(iclasses.towerAI
Action
p376
(dp377
g3
g63
sg5
(lp378
g237
asg7
g65
sg9
(lp379
(I0
I16
tp380
asg12
g8
sba(iclasses.towerAI
Action
p381
(dp382
g3
g4
sg5
g6
sg7
g8
sg9
(lp383
(I0
I0
tp384
asg12
Nsba(iclasses.towerAI
Action
p385
(dp386
g3
g4
sg5
g6
sg7
g8
sg9
(lp387
(I0
I1
tp388
asg12
Nsba(iclasses.towerAI
Action
p389
(dp390
g3
g4
sg5
g6
sg7
g8
sg9
(lp391
(I0
I2
tp392
asg12
Nsba(iclasses.towerAI
Action
p393
(dp394
g3
g63
sg5
(lp395
g233
asg7
g65
sg9
(lp396
(I0
I15
tp397
asg12
g8
sba(iclasses.towerAI
Action
p398
(dp399
g3
g63
sg5
(lp400
g229
asg7
g65
sg9
(lp401
(I0
I14
tp402
asg12
g8
sba(iclasses.towerAI
Action
p403
(dp404
g3
g63
sg5
(lp405
g221
asg7
g65
sg9
(lp406
(I0
I13
tp407
asg12
g8
sba(iclasses.towerAI
Action
p408
(dp409
g3
g63
sg5
(lp410
g217
asg7
g65
sg9
(lp411
(I0
I11
tp412
asg12
g8
sba(iclasses.towerAI
Action
p413
(dp414
g3
g63
sg5
(lp415
g225
asg7
g65
sg9
(lp416
(I0
I12
tp417
asg12
g8
sba(iclasses.towerAI
Action
p418
(dp419
g3
g63
sg5
(lp420
g293
asg7
g65
sg9
(lp421
(I2
I12
tp422
asg12
g8
sba(iclasses.towerAI
Action
p423
(dp424
g3
g63
sg5
(lp425
g301
asg7
g65
sg9
(lp426
(I2
I11
tp427
asg12
g8
sba(iclasses.towerAI
Action
p428
(dp429
g3
g63
sg5
(lp430
g297
asg7
g65
sg9
(lp431
(I2
I10
tp432
asg12
g8
sba(iclasses.towerAI
Action
p433
(dp434
g3
g63
sg5
(lp435
g213
asg7
g65
sg9
(lp436
(I0
I10
tp437
asg12
g8
sba(iclasses.towerAI
Action
p438
(dp439
g3
g63
sg5
(lp440
g305
asg7
g65
sg9
(lp441
(I2
I9
tp442
asg12
g8
sba(iclasses.towerAI
Action
p443
(dp444
g3
g63
sg5
(lp445
g209
asg7
g65
sg9
(lp446
(I0
I9
tp447
asg12
g8
sba(iclasses.towerAI
Action
p448
(dp449
g3
g161
sg5
g6
sg7
Nsg9
Nsg12
Nsba(iclasses.towerAI
Action
p450
(dp451
g3
g336
sg5
(lp452
g309
asg7
Nsg9
Nsg12
g8
sba(iclasses.towerAI
Action
p453
(dp454
g3
g63
sg5
(lp455
g313
asg7
S'Granulocyte'
p456
sg9
(lp457
(I2
I7
tp458
asg12
g8
sba(iclasses.towerAI
Action
p459
(dp460
g3
g63
sg5
(lp461
g458
asg7
S'Neutrophil'
p462
sg9
(lp463
(I2
I7
tp464
a(I3
I7
tp465
a(I2
I8
tp466
a(I3
I8
tp467
asg12
g456
sba(iclasses.towerAI
Action
p468
(dp469
g3
g63
sg5
(lp470
g317
asg7
g65
sg9
(lp471
(I2
I6
tp472
asg12
g8
sba(iclasses.towerAI
Action
p473
(dp474
g3
g63
sg5
(lp475
g321
asg7
g65
sg9
(lp476
(I2
I5
tp477
asg12
g8
sba(iclasses.towerAI
Action
p478
(dp479
g3
g63
sg5
(lp480
g325
asg7
g65
sg9
(lp481
(I2
I4
tp482
asg12
g8
sba(iclasses.towerAI
Action
p483
(dp484
g3
g336
sg5
(lp485
g329
asg7
Nsg9
Nsg12
g8
sba(iclasses.towerAI
Action
p486
(dp487
g3
g63
sg5
(lp488
g333
asg7
g456
sg9
(lp489
(I2
I2
tp490
asg12
g8
sba(iclasses.towerAI
Action
p491
(dp492
g3
g63
sg5
(lp493
g490
asg7
S'Monocyte'
p494
sg9
(lp495
(I2
I2
tp496
asg12
g456
sba(iclasses.towerAI
Action
p497
(dp498
g3
g4
sg5
g6
sg7
g8
sg9
(lp499
(I2
I3
tp500
asg12
Nsba(iclasses.towerAI
Action
p501
(dp502
g3
g63
sg5
(lp503
g500
asg7
g65
sg9
(lp504
(I2
I3
tp505
asg12
g8
sba(iclasses.towerAI
Action
p506
(dp507
g3
g161
sg5
g6
sg7
Nsg9
Nsg12
Nsba(iclasses.towerAI
Action
p508
(dp509
g3
g336
sg5
(lp510
g136
asg7
Nsg9
Nsg12
g65
sba(iclasses.towerAI
Action
p511
(dp512
g3
g63
sg5
(lp513
g67
asg7
g76
sg9
(lp514
(I20
I1
tp515
a(I21
I1
tp516
a(I20
I2
tp517
a(I21
I2
tp518
asg12
g65
sba(iclasses.towerAI
Action
p519
(dp520
g3
g161
sg5
g6
sg7
Nsg9
Nsg12
Nsba.