(lp0
(iclasses.towerAI
Action
p1
(dp2
S'action'
p3
S'buy'
p4
sS'tower_d_pos'
p5
(lp6
sS'tower'
p7
S'Stem Cell'
p8
sS'pos'
p9
(lp10
(I21
I1
tp11
asS'tower_d'
p12
Nsba(iclasses.towerAI
Action
p13
(dp14
g3
S'upgrade'
p15
sg5
(lp16
g11
asg7
S'Lymphocyte'
p17
sg9
(lp18
(I20
I1
tp19
asg12
g8
sba(iclasses.towerAI
Action
p20
(dp21
g3
g15
sg5
(lp22
g19
asg7
S'T-Cell'
p23
sg9
(lp24
(I19
I1
tp25
a(I20
I1
tp26
a(I19
I2
tp27
a(I20
I2
tp28
asg12
g17
sba(iclasses.towerAI
Action
p29
(dp30
g3
g4
sg5
g6
sg7
g8
sg9
(lp31
(I0
I1
tp32
asg12
Nsba(iclasses.towerAI
Action
p33
(dp34
g3
g15
sg5
(lp35
g32
asg7
g17
sg9
(lp36
(I0
I1
tp37
asg12
g8
sba(iclasses.towerAI
Action
p38
(dp39
g3
g15
sg5
(lp40
g37
asg7
g23
sg9
(lp41
(I2
I1
tp42
a(I3
I1
tp43
a(I2
I2
tp44
a(I3
I2
tp45
asg12
g17
sba(iclasses.towerAI
Action
p46
(dp47
g3
g4
sg5
g6
sg7
g8
sg9
(lp48
(I21
I1
tp49
asg12
Nsba(iclasses.towerAI
Action
p50
(dp51
g3
g15
sg5
(lp52
g49
asg7
S'Granulocyte'
p53
sg9
(lp54
(I21
I1
tp55
asg12
g8
sba(iclasses.towerAI
Action
p56
(dp57
g3
g4
sg5
g6
sg7
g8
sg9
(lp58
(I4
I1
tp59
asg12
Nsba(iclasses.towerAI
Action
p60
(dp61
g3
g15
sg5
(lp62
g59
asg7
g17
sg9
(lp63
(I4
I1
tp64
asg12
g8
sba(iclasses.towerAI
Action
p65
(dp66
g3
g4
sg5
g6
sg7
g8
sg9
(lp67
(I6
I1
tp68
asg12
Nsba(iclasses.towerAI
Action
p69
(dp70
g3
g15
sg5
(lp71
g68
asg7
g53
sg9
(lp72
(I6
I1
tp73
asg12
g8
sba(iclasses.towerAI
Action
p74
(dp75
g3
g4
sg5
g6
sg7
g8
sg9
(lp76
(I0
I1
tp77
asg12
Nsba(iclasses.towerAI
Action
p78
(dp79
g3
g15
sg5
(lp80
g77
asg7
g53
sg9
(lp81
(I0
I1
tp82
asg12
g8
sba(iclasses.towerAI
Action
p83
(dp84
g3
g4
sg5
g6
sg7
g8
sg9
(lp85
(I18
I1
tp86
asg12
Nsba(iclasses.towerAI
Action
p87
(dp88
g3
g15
sg5
(lp89
g86
asg7
g53
sg9
(lp90
(I18
I1
tp91
asg12
g8
sba(iclasses.towerAI
Action
p92
(dp93
g3
g4
sg5
g6
sg7
g8
sg9
(lp94
(I8
I1
tp95
asg12
Nsba(iclasses.towerAI
Action
p96
(dp97
g3
g15
sg5
(lp98
g95
asg7
g53
sg9
(lp99
(I8
I1
tp100
asg12
g8
sba(iclasses.towerAI
Action
p101
(dp102
g3
g4
sg5
g6
sg7
g8
sg9
(lp103
(I9
I1
tp104
asg12
Nsba(iclasses.towerAI
Action
p105
(dp106
g3
g15
sg5
(lp107
g104
asg7
g53
sg9
(lp108
(I9
I1
tp109
asg12
g8
sba(iclasses.towerAI
Action
p110
(dp111
g3
g4
sg5
g6
sg7
g8
sg9
(lp112
(I17
I1
tp113
asg12
Nsba(iclasses.towerAI
Action
p114
(dp115
g3
g15
sg5
(lp116
g113
asg7
g53
sg9
(lp117
(I17
I1
tp118
asg12
g8
sba(iclasses.towerAI
Action
p119
(dp120
g3
g4
sg5
g6
sg7
g8
sg9
(lp121
(I10
I1
tp122
asg12
Nsba(iclasses.towerAI
Action
p123
(dp124
g3
g15
sg5
(lp125
g122
asg7
g53
sg9
(lp126
(I10
I1
tp127
asg12
g8
sba(iclasses.towerAI
Action
p128
(dp129
g3
g4
sg5
g6
sg7
g8
sg9
(lp130
(I16
I1
tp131
asg12
Nsba(iclasses.towerAI
Action
p132
(dp133
g3
g15
sg5
(lp134
g131
asg7
g53
sg9
(lp135
(I16
I1
tp136
asg12
g8
sba(iclasses.towerAI
Action
p137
(dp138
g3
g4
sg5
g6
sg7
g8
sg9
(lp139
(I11
I1
tp140
asg12
Nsba(iclasses.towerAI
Action
p141
(dp142
g3
g15
sg5
(lp143
g140
asg7
g53
sg9
(lp144
(I11
I1
tp145
asg12
g8
sba(iclasses.towerAI
Action
p146
(dp147
g3
g4
sg5
g6
sg7
g8
sg9
(lp148
(I15
I1
tp149
asg12
Nsba(iclasses.towerAI
Action
p150
(dp151
g3
g15
sg5
(lp152
g149
asg7
g53
sg9
(lp153
(I15
I1
tp154
asg12
g8
sba(iclasses.towerAI
Action
p155
(dp156
g3
g15
sg5
(lp157
g100
asg7
S'Basophil'
p158
sg9
(lp159
(I8
I1
tp160
asg12
g53
sba(iclasses.towerAI
Action
p161
(dp162
g3
g15
sg5
(lp163
g64
asg7
S'B-Cell'
p164
sg9
(lp165
(I4
I1
tp166
a(I5
I1
tp167
a(I4
I2
tp168
a(I5
I2
tp169
asg12
g17
sba(iclasses.towerAI
Action
p170
(dp171
g3
g15
sg5
(lp172
g166
ag167
ag168
ag169
asg7
S'Plasma Cell'
p173
sg9
(lp174
(I4
I1
tp175
a(I5
I1
tp176
a(I4
I2
tp177
a(I5
I2
tp178
asg12
g164
sba(iclasses.towerAI
Action
p179
(dp180
g3
g4
sg5
g6
sg7
g8
sg9
(lp181
(I12
I1
tp182
asg12
Nsba(iclasses.towerAI
Action
p183
(dp184
g3
g15
sg5
(lp185
g182
asg7
g53
sg9
(lp186
(I12
I1
tp187
asg12
g8
sba(iclasses.towerAI
Action
p188
(dp189
g3
g4
sg5
g6
sg7
g8
sg9
(lp190
(I13
I1
tp191
asg12
Nsba(iclasses.towerAI
Action
p192
(dp193
g3
g15
sg5
(lp194
g191
asg7
g53
sg9
(lp195
(I13
I1
tp196
asg12
g8
sba(iclasses.towerAI
Action
p197
(dp198
g3
g4
sg5
g6
sg7
g8
sg9
(lp199
(I14
I1
tp200
asg12
Nsba(iclasses.towerAI
Action
p201
(dp202
g3
g15
sg5
(lp203
g200
asg7
g53
sg9
(lp204
(I14
I1
tp205
asg12
g8
sba(iclasses.towerAI
Action
p206
(dp207
g3
g4
sg5
g6
sg7
g8
sg9
(lp208
(I0
I2
tp209
asg12
Nsba(iclasses.towerAI
Action
p210
(dp211
g3
g4
sg5
g6
sg7
g8
sg9
(lp212
(I0
I3
tp213
asg12
Nsba(iclasses.towerAI
Action
p214
(dp215
g3
g4
sg5
g6
sg7
g8
sg9
(lp216
(I0
I4
tp217
asg12
Nsba(iclasses.towerAI
Action
p218
(dp219
g3
g4
sg5
g6
sg7
g8
sg9
(lp220
(I0
I5
tp221
asg12
Nsba(iclasses.towerAI
Action
p222
(dp223
g3
g4
sg5
g6
sg7
g8
sg9
(lp224
(I0
I6
tp225
asg12
Nsba(iclasses.towerAI
Action
p226
(dp227
g3
g4
sg5
g6
sg7
g8
sg9
(lp228
(I0
I7
tp229
asg12
Nsba(iclasses.towerAI
Action
p230
(dp231
g3
g4
sg5
g6
sg7
g8
sg9
(lp232
(I0
I8
tp233
asg12
Nsba(iclasses.towerAI
Action
p234
(dp235
g3
g4
sg5
g6
sg7
g8
sg9
(lp236
(I0
I9
tp237
asg12
Nsba(iclasses.towerAI
Action
p238
(dp239
g3
g4
sg5
g6
sg7
g8
sg9
(lp240
(I0
I10
tp241
asg12
Nsba(iclasses.towerAI
Action
p242
(dp243
g3
g4
sg5
g6
sg7
g8
sg9
(lp244
(I0
I11
tp245
asg12
Nsba(iclasses.towerAI
Action
p246
(dp247
g3
g4
sg5
g6
sg7
g8
sg9
(lp248
(I0
I12
tp249
asg12
Nsba(iclasses.towerAI
Action
p250
(dp251
g3
g4
sg5
g6
sg7
g8
sg9
(lp252
(I0
I13
tp253
asg12
Nsba(iclasses.towerAI
Action
p254
(dp255
g3
g4
sg5
g6
sg7
g8
sg9
(lp256
(I0
I14
tp257
asg12
Nsba(iclasses.towerAI
Action
p258
(dp259
g3
g4
sg5
g6
sg7
g8
sg9
(lp260
(I0
I15
tp261
asg12
Nsba(iclasses.towerAI
Action
p262
(dp263
g3
g4
sg5
g6
sg7
g8
sg9
(lp264
(I0
I16
tp265
asg12
Nsba(iclasses.towerAI
Action
p266
(dp267
g3
g4
sg5
g6
sg7
g8
sg9
(lp268
(I2
I17
tp269
asg12
Nsba(iclasses.towerAI
Action
p270
(dp271
g3
g15
sg5
(lp272
g269
asg7
g17
sg9
(lp273
(I2
I17
tp274
asg12
g8
sba(iclasses.towerAI
Action
p275
(dp276
g3
g15
sg5
(lp277
g274
asg7
g23
sg9
(lp278
(I2
I16
tp279
a(I3
I16
tp280
a(I2
I17
tp281
a(I3
I17
tp282
asg12
g17
sba(iclasses.towerAI
Action
p283
(dp284
g3
g15
sg5
(lp285
g265
asg7
g53
sg9
(lp286
(I0
I16
tp287
asg12
g8
sba(iclasses.towerAI
Action
p288
(dp289
g3
g4
sg5
g6
sg7
g8
sg9
(lp290
(I2
I15
tp291
asg12
Nsba(iclasses.towerAI
Action
p292
(dp293
g3
g15
sg5
(lp294
g291
asg7
g17
sg9
(lp295
(I2
I15
tp296
asg12
g8
sba(iclasses.towerAI
Action
p297
(dp298
g3
g15
sg5
(lp299
g296
asg7
g164
sg9
(lp300
(I2
I14
tp301
a(I3
I14
tp302
a(I2
I15
tp303
a(I3
I15
tp304
asg12
g17
sba(iclasses.towerAI
Action
p305
(dp306
g3
g15
sg5
(lp307
g301
ag302
ag303
ag304
asg7
g173
sg9
(lp308
(I2
I14
tp309
a(I3
I14
tp310
a(I2
I15
tp311
a(I3
I15
tp312
asg12
g164
sba(iclasses.towerAI
Action
p313
(dp314
g3
g4
sg5
g6
sg7
g8
sg9
(lp315
(I2
I13
tp316
asg12
Nsba(iclasses.towerAI
Action
p317
(dp318
g3
g4
sg5
g6
sg7
g8
sg9
(lp319
(I2
I12
tp320
asg12
Nsba(iclasses.towerAI
Action
p321
(dp322
g3
g4
sg5
g6
sg7
g8
sg9
(lp323
(I2
I11
tp324
asg12
Nsba(iclasses.towerAI
Action
p325
(dp326
g3
g4
sg5
g6
sg7
g8
sg9
(lp327
(I2
I10
tp328
asg12
Nsba(iclasses.towerAI
Action
p329
(dp330
g3
g4
sg5
g6
sg7
g8
sg9
(lp331
(I2
I9
tp332
asg12
Nsba(iclasses.towerAI
Action
p333
(dp334
g3
g4
sg5
g6
sg7
g8
sg9
(lp335
(I2
I8
tp336
asg12
Nsba(iclasses.towerAI
Action
p337
(dp338
g3
g4
sg5
g6
sg7
g8
sg9
(lp339
(I2
I7
tp340
asg12
Nsba(iclasses.towerAI
Action
p341
(dp342
g3
g4
sg5
g6
sg7
g8
sg9
(lp343
(I2
I6
tp344
asg12
Nsba(iclasses.towerAI
Action
p345
(dp346
g3
g4
sg5
g6
sg7
g8
sg9
(lp347
(I2
I5
tp348
asg12
Nsba(iclasses.towerAI
Action
p349
(dp350
g3
g4
sg5
g6
sg7
g8
sg9
(lp351
(I0
I0
tp352
asg12
Nsba(iclasses.towerAI
Action
p353
(dp354
g3
g4
sg5
g6
sg7
g8
sg9
(lp355
(I2
I3
tp356
asg12
Nsba(iclasses.towerAI
Action
p357
(dp358
g3
g4
sg5
g6
sg7
g8
sg9
(lp359
(I2
I4
tp360
asg12
Nsba(iclasses.towerAI
Action
p361
(dp362
g3
g4
sg5
g6
sg7
g8
sg9
(lp363
(I7
I1
tp364
asg12
Nsba(iclasses.towerAI
Action
p365
(dp366
g3
g15
sg5
(lp367
g316
asg7
g53
sg9
(lp368
(I2
I13
tp369
asg12
g8
sba(iclasses.towerAI
Action
p370
(dp371
g3
S'sell'
p372
sg5
(lp373
g320
asg7
Nsg9
Nsg12
g8
sba(iclasses.towerAI
Action
p374
(dp375
g3
g15
sg5
(lp376
g369
asg7
S'Neutrophil'
p377
sg9
(lp378
(I2
I12
tp379
a(I3
I12
tp380
a(I2
I13
tp381
a(I3
I13
tp382
asg12
g53
sba(iclasses.towerAI
Action
p383
(dp384
g3
g15
sg5
(lp385
g261
asg7
g53
sg9
(lp386
(I0
I15
tp387
asg12
g8
sba(iclasses.towerAI
Action
p388
(dp389
g3
g15
sg5
(lp390
g257
asg7
g53
sg9
(lp391
(I0
I14
tp392
asg12
g8
sba(iclasses.towerAI
Action
p393
(dp394
g3
g15
sg5
(lp395
g253
asg7
g53
sg9
(lp396
(I0
I13
tp397
asg12
g8
sba(iclasses.towerAI
Action
p398
(dp399
g3
g15
sg5
(lp400
g249
asg7
g53
sg9
(lp401
(I0
I12
tp402
asg12
g8
sba(iclasses.towerAI
Action
p403
(dp404
g3
g15
sg5
(lp405
g245
asg7
g53
sg9
(lp406
(I0
I11
tp407
asg12
g8
sba(iclasses.towerAI
Action
p408
(dp409
g3
g15
sg5
(lp410
g241
asg7
g53
sg9
(lp411
(I0
I10
tp412
asg12
g8
sba(iclasses.towerAI
Action
p413
(dp414
g3
g15
sg5
(lp415
g324
asg7
g17
sg9
(lp416
(I2
I11
tp417
asg12
g8
sba(iclasses.towerAI
Action
p418
(dp419
g3
g372
sg5
(lp420
g328
asg7
Nsg9
Nsg12
g8
sba(iclasses.towerAI
Action
p421
(dp422
g3
g15
sg5
(lp423
g417
asg7
g164
sg9
(lp424
(I2
I10
tp425
a(I3
I10
tp426
a(I2
I11
tp427
a(I3
I11
tp428
asg12
g17
sba(iclasses.towerAI
Action
p429
(dp430
g3
g15
sg5
(lp431
g425
ag426
ag427
ag428
asg7
g173
sg9
(lp432
(I2
I10
tp433
a(I3
I10
tp434
a(I2
I11
tp435
a(I3
I11
tp436
asg12
g164
sba(iclasses.towerAI
Action
p437
(dp438
g3
g15
sg5
(lp439
g332
asg7
g53
sg9
(lp440
(I2
I9
tp441
asg12
g8
sba(iclasses.towerAI
Action
p442
(dp443
g3
g372
sg5
(lp444
g336
asg7
Nsg9
Nsg12
g8
sba(iclasses.towerAI
Action
p445
(dp446
g3
g15
sg5
(lp447
g441
asg7
g377
sg9
(lp448
(I2
I8
tp449
a(I3
I8
tp450
a(I2
I9
tp451
a(I3
I9
tp452
asg12
g53
sba(iclasses.towerAI
Action
p453
(dp454
g3
g15
sg5
(lp455
g287
asg7
g158
sg9
(lp456
(I0
I16
tp457
asg12
g53
sba(iclasses.towerAI
Action
p458
(dp459
g3
g15
sg5
(lp460
g237
asg7
g53
sg9
(lp461
(I0
I9
tp462
asg12
g8
sba(iclasses.towerAI
Action
p463
(dp464
g3
g15
sg5
(lp465
g233
asg7
g53
sg9
(lp466
(I0
I8
tp467
asg12
g8
sba(iclasses.towerAI
Action
p468
(dp469
g3
g15
sg5
(lp470
g229
asg7
g53
sg9
(lp471
(I0
I7
tp472
asg12
g8
sba(iclasses.towerAI
Action
p473
(dp474
g3
g15
sg5
(lp475
g225
asg7
g53
sg9
(lp476
(I0
I6
tp477
asg12
g8
sba(iclasses.towerAI
Action
p478
(dp479
g3
g15
sg5
(lp480
g221
asg7
g53
sg9
(lp481
(I0
I5
tp482
asg12
g8
sba(iclasses.towerAI
Action
p483
(dp484
g3
g15
sg5
(lp485
g217
asg7
g53
sg9
(lp486
(I0
I4
tp487
asg12
g8
sba(iclasses.towerAI
Action
p488
(dp489
g3
g15
sg5
(lp490
g340
asg7
g17
sg9
(lp491
(I2
I7
tp492
asg12
g8
sba(iclasses.towerAI
Action
p493
(dp494
g3
g372
sg5
(lp495
g344
asg7
Nsg9
Nsg12
g8
sba(iclasses.towerAI
Action
p496
(dp497
g3
g15
sg5
(lp498
g492
asg7
g164
sg9
(lp499
(I2
I6
tp500
a(I3
I6
tp501
a(I2
I7
tp502
a(I3
I7
tp503
asg12
g17
sba(iclasses.towerAI
Action
p504
(dp505
g3
g15
sg5
(lp506
g500
ag501
ag502
ag503
asg7
g173
sg9
(lp507
(I2
I6
tp508
a(I3
I6
tp509
a(I2
I7
tp510
a(I3
I7
tp511
asg12
g164
sba(iclasses.towerAI
Action
p512
(dp513
g3
g15
sg5
(lp514
g348
asg7
g53
sg9
(lp515
(I2
I5
tp516
asg12
g8
sba(iclasses.towerAI
Action
p517
(dp518
g3
g372
sg5
(lp519
g360
asg7
Nsg9
Nsg12
g8
sba(iclasses.towerAI
Action
p520
(dp521
g3
g15
sg5
(lp522
g516
asg7
g377
sg9
(lp523
(I2
I4
tp524
a(I3
I4
tp525
a(I2
I5
tp526
a(I3
I5
tp527
asg12
g53
sba(iclasses.towerAI
Action
p528
(dp529
g3
g15
sg5
(lp530
g387
asg7
g158
sg9
(lp531
(I0
I15
tp532
asg12
g53
sba(iclasses.towerAI
Action
p533
(dp534
g3
g15
sg5
(lp535
g213
asg7
g53
sg9
(lp536
(I0
I3
tp537
asg12
g8
sba(iclasses.towerAI
Action
p538
(dp539
g3
g15
sg5
(lp540
g209
asg7
g53
sg9
(lp541
(I0
I2
tp542
asg12
g8
sba(iclasses.towerAI
Action
p543
(dp544
g3
g15
sg5
(lp545
g352
asg7
g53
sg9
(lp546
(I0
I0
tp547
asg12
g8
sba(iclasses.towerAI
Action
p548
(dp549
g3
g4
sg5
g6
sg7
g8
sg9
(lp550
(I3
I3
tp551
asg12
Nsba(iclasses.towerAI
Action
p552
(dp553
g3
g4
sg5
g6
sg7
g8
sg9
(lp554
(I5
I3
tp555
asg12
Nsba(iclasses.towerAI
Action
p556
(dp557
g3
g4
sg5
g6
sg7
g8
sg9
(lp558
(I5
I4
tp559
asg12
Nsba(iclasses.towerAI
Action
p560
(dp561
g3
g4
sg5
g6
sg7
g8
sg9
(lp562
(I5
I5
tp563
asg12
Nsba(iclasses.towerAI
Action
p564
(dp565
g3
g4
sg5
g6
sg7
g8
sg9
(lp566
(I5
I6
tp567
asg12
Nsba(iclasses.towerAI
Action
p568
(dp569
g3
g372
sg5
(lp570
g175
ag176
ag177
ag178
asg7
Nsg9
Nsg12
g173
sba(iclasses.towerAI
Action
p571
(dp572
g3
g372
sg5
(lp573
g73
asg7
Nsg9
Nsg12
g53
sba(iclasses.towerAI
Action
p574
(dp575
g3
g372
sg5
(lp576
g364
asg7
Nsg9
Nsg12
g8
sba(iclasses.towerAI
Action
p577
(dp578
g3
g4
sg5
g6
sg7
g8
sg9
(lp579
(I5
I0
tp580
asg12
Nsba(iclasses.towerAI
Action
p581
(dp582
g3
g4
sg5
g6
sg7
g8
sg9
(lp583
(I5
I1
tp584
asg12
Nsba(iclasses.towerAI
Action
p585
(dp586
g3
g4
sg5
g6
sg7
g8
sg9
(lp587
(I5
I2
tp588
asg12
Nsba(iclasses.towerAI
Action
p589
(dp590
g3
g4
sg5
g6
sg7
g8
sg9
(lp591
(I5
I7
tp592
asg12
Nsba(iclasses.towerAI
Action
p593
(dp594
g3
g4
sg5
g6
sg7
g8
sg9
(lp595
(I5
I8
tp596
asg12
Nsba(iclasses.towerAI
Action
p597
(dp598
g3
g4
sg5
g6
sg7
g8
sg9
(lp599
(I5
I9
tp600
asg12
Nsba(iclasses.towerAI
Action
p601
(dp602
g3
g4
sg5
g6
sg7
g8
sg9
(lp603
(I5
I10
tp604
asg12
Nsba(iclasses.towerAI
Action
p605
(dp606
g3
g4
sg5
g6
sg7
g8
sg9
(lp607
(I5
I11
tp608
asg12
Nsba(iclasses.towerAI
Action
p609
(dp610
g3
g4
sg5
g6
sg7
g8
sg9
(lp611
(I5
I12
tp612
asg12
Nsba(iclasses.towerAI
Action
p613
(dp614
g3
g4
sg5
g6
sg7
g8
sg9
(lp615
(I5
I13
tp616
asg12
Nsba(iclasses.towerAI
Action
p617
(dp618
g3
g4
sg5
g6
sg7
g8
sg9
(lp619
(I5
I14
tp620
asg12
Nsba(iclasses.towerAI
Action
p621
(dp622
g3
g4
sg5
g6
sg7
g8
sg9
(lp623
(I5
I15
tp624
asg12
Nsba(iclasses.towerAI
Action
p625
(dp626
g3
g4
sg5
g6
sg7
g8
sg9
(lp627
(I5
I16
tp628
asg12
Nsba(iclasses.towerAI
Action
p629
(dp630
g3
g4
sg5
g6
sg7
g8
sg9
(lp631
(I7
I17
tp632
asg12
Nsba(iclasses.towerAI
Action
p633
(dp634
g3
g4
sg5
g6
sg7
g8
sg9
(lp635
(I7
I15
tp636
asg12
Nsba(iclasses.towerAI
Action
p637
(dp638
g3
g4
sg5
g6
sg7
g8
sg9
(lp639
(I7
I14
tp640
asg12
Nsba(iclasses.towerAI
Action
p641
(dp642
g3
g4
sg5
g6
sg7
g8
sg9
(lp643
(I7
I13
tp644
asg12
Nsba(iclasses.towerAI
Action
p645
(dp646
g3
g4
sg5
g6
sg7
g8
sg9
(lp647
(I7
I12
tp648
asg12
Nsba(iclasses.towerAI
Action
p649
(dp650
g3
g4
sg5
g6
sg7
g8
sg9
(lp651
(I7
I11
tp652
asg12
Nsba(iclasses.towerAI
Action
p653
(dp654
g3
g4
sg5
g6
sg7
g8
sg9
(lp655
(I7
I10
tp656
asg12
Nsba(iclasses.towerAI
Action
p657
(dp658
g3
g4
sg5
g6
sg7
g8
sg9
(lp659
(I7
I9
tp660
asg12
Nsba(iclasses.towerAI
Action
p661
(dp662
g3
g4
sg5
g6
sg7
g8
sg9
(lp663
(I7
I8
tp664
asg12
Nsba(iclasses.towerAI
Action
p665
(dp666
g3
g4
sg5
g6
sg7
g8
sg9
(lp667
(I7
I6
tp668
asg12
Nsba(iclasses.towerAI
Action
p669
(dp670
g3
g4
sg5
g6
sg7
g8
sg9
(lp671
(I7
I5
tp672
asg12
Nsba(iclasses.towerAI
Action
p673
(dp674
g3
g4
sg5
g6
sg7
g8
sg9
(lp675
(I7
I4
tp676
asg12
Nsba(iclasses.towerAI
Action
p677
(dp678
g3
g4
sg5
g6
sg7
g8
sg9
(lp679
(I7
I3
tp680
asg12
Nsba(iclasses.towerAI
Action
p681
(dp682
g3
g4
sg5
g6
sg7
g8
sg9
(lp683
(I7
I2
tp684
asg12
Nsba(iclasses.towerAI
Action
p685
(dp686
g3
g4
sg5
g6
sg7
g8
sg9
(lp687
(I7
I1
tp688
asg12
Nsba(iclasses.towerAI
Action
p689
(dp690
g3
g4
sg5
g6
sg7
g8
sg9
(lp691
(I7
I7
tp692
asg12
Nsba(iclasses.towerAI
Action
p693
(dp694
g3
g15
sg5
(lp695
g632
asg7
g17
sg9
(lp696
(I7
I17
tp697
asg12
g8
sba(iclasses.towerAI
Action
p698
(dp699
g3
g15
sg5
(lp700
g697
asg7
g23
sg9
(lp701
(I7
I16
tp702
a(I8
I16
tp703
a(I7
I17
tp704
a(I8
I17
tp705
asg12
g17
sba(iclasses.towerAI
Action
p706
(dp707
g3
g15
sg5
(lp708
g392
asg7
g158
sg9
(lp709
(I0
I14
tp710
asg12
g53
sba(iclasses.towerAI
Action
p711
(dp712
g3
g15
sg5
(lp713
g356
asg7
g53
sg9
(lp714
(I2
I3
tp715
asg12
g8
sba(iclasses.towerAI
Action
p716
(dp717
g3
g15
sg5
(lp718
g551
asg7
g53
sg9
(lp719
(I3
I3
tp720
asg12
g8
sba(iclasses.towerAI
Action
p721
(dp722
g3
g15
sg5
(lp723
g580
asg7
g53
sg9
(lp724
(I5
I0
tp725
asg12
g8
sba(iclasses.towerAI
Action
p726
(dp727
g3
g15
sg5
(lp728
g584
asg7
g53
sg9
(lp729
(I5
I1
tp730
asg12
g8
sba(iclasses.towerAI
Action
p731
(dp732
g3
g15
sg5
(lp733
g588
asg7
g53
sg9
(lp734
(I5
I2
tp735
asg12
g8
sba(iclasses.towerAI
Action
p736
(dp737
g3
g15
sg5
(lp738
g555
asg7
g53
sg9
(lp739
(I5
I3
tp740
asg12
g8
sba(iclasses.towerAI
Action
p741
(dp742
g3
g15
sg5
(lp743
g559
asg7
g53
sg9
(lp744
(I5
I4
tp745
asg12
g8
sba(iclasses.towerAI
Action
p746
(dp747
g3
g15
sg5
(lp748
g563
asg7
g53
sg9
(lp749
(I5
I5
tp750
asg12
g8
sba(iclasses.towerAI
Action
p751
(dp752
g3
g15
sg5
(lp753
g567
asg7
g53
sg9
(lp754
(I5
I6
tp755
asg12
g8
sba(iclasses.towerAI
Action
p756
(dp757
g3
g15
sg5
(lp758
g397
asg7
g158
sg9
(lp759
(I0
I13
tp760
asg12
g53
sba(iclasses.towerAI
Action
p761
(dp762
g3
g15
sg5
(lp763
g402
asg7
g158
sg9
(lp764
(I0
I12
tp765
asg12
g53
sba(iclasses.towerAI
Action
p766
(dp767
g3
g15
sg5
(lp768
g407
asg7
g158
sg9
(lp769
(I0
I11
tp770
asg12
g53
sba(iclasses.towerAI
Action
p771
(dp772
g3
g15
sg5
(lp773
g412
asg7
g158
sg9
(lp774
(I0
I10
tp775
asg12
g53
sba(iclasses.towerAI
Action
p776
(dp777
g3
g15
sg5
(lp778
g592
asg7
g53
sg9
(lp779
(I5
I7
tp780
asg12
g8
sba(iclasses.towerAI
Action
p781
(dp782
g3
g15
sg5
(lp783
g462
asg7
g158
sg9
(lp784
(I0
I9
tp785
asg12
g53
sba(iclasses.towerAI
Action
p786
(dp787
g3
g15
sg5
(lp788
g636
asg7
g17
sg9
(lp789
(I7
I15
tp790
asg12
g8
sba(iclasses.towerAI
Action
p791
(dp792
g3
g372
sg5
(lp793
g640
asg7
Nsg9
Nsg12
g8
sba(iclasses.towerAI
Action
p794
(dp795
g3
g15
sg5
(lp796
g790
asg7
g164
sg9
(lp797
(I7
I14
tp798
a(I8
I14
tp799
a(I7
I15
tp800
a(I8
I15
tp801
asg12
g17
sba(iclasses.towerAI
Action
p802
(dp803
g3
g15
sg5
(lp804
g798
ag799
ag800
ag801
asg7
g173
sg9
(lp805
(I7
I14
tp806
a(I8
I14
tp807
a(I7
I15
tp808
a(I8
I15
tp809
asg12
g164
sba(iclasses.towerAI
Action
p810
(dp811
g3
g15
sg5
(lp812
g644
asg7
g53
sg9
(lp813
(I7
I13
tp814
asg12
g8
sba(iclasses.towerAI
Action
p815
(dp816
g3
g372
sg5
(lp817
g648
asg7
Nsg9
Nsg12
g8
sba(iclasses.towerAI
Action
p818
(dp819
g3
g15
sg5
(lp820
g814
asg7
g377
sg9
(lp821
(I7
I12
tp822
a(I8
I12
tp823
a(I7
I13
tp824
a(I8
I13
tp825
asg12
g53
sba(iclasses.towerAI
Action
p826
(dp827
g3
g15
sg5
(lp828
g467
asg7
g158
sg9
(lp829
(I0
I8
tp830
asg12
g53
sba(iclasses.towerAI
Action
p831
(dp832
g3
g15
sg5
(lp833
g596
asg7
g53
sg9
(lp834
(I5
I8
tp835
asg12
g8
sba(iclasses.towerAI
Action
p836
(dp837
g3
g15
sg5
(lp838
g715
asg7
S'Monocyte'
p839
sg9
(lp840
(I2
I3
tp841
asg12
g53
sba(iclasses.towerAI
Action
p842
(dp843
g3
g15
sg5
(lp844
g472
asg7
g158
sg9
(lp845
(I0
I7
tp846
asg12
g53
sba(iclasses.towerAI
Action
p847
(dp848
g3
g372
sg5
(lp849
g652
asg7
Nsg9
Nsg12
g8
sba(iclasses.towerAI
Action
p850
(dp851
g3
g15
sg5
(lp852
g656
asg7
g17
sg9
(lp853
(I7
I10
tp854
asg12
g8
sba(iclasses.towerAI
Action
p855
(dp856
g3
g15
sg5
(lp857
g854
asg7
g164
sg9
(lp858
(I7
I10
tp859
a(I8
I10
tp860
a(I7
I11
tp861
a(I8
I11
tp862
asg12
g17
sba(iclasses.towerAI
Action
p863
(dp864
g3
g15
sg5
(lp865
g859
ag860
ag861
ag862
asg7
g173
sg9
(lp866
(I7
I10
tp867
a(I8
I10
tp868
a(I7
I11
tp869
a(I8
I11
tp870
asg12
g164
sba(iclasses.towerAI
Action
p871
(dp872
g3
g15
sg5
(lp873
g477
asg7
g158
sg9
(lp874
(I0
I6
tp875
asg12
g53
sba(iclasses.towerAI
Action
p876
(dp877
g3
g15
sg5
(lp878
g482
asg7
g158
sg9
(lp879
(I0
I5
tp880
asg12
g53
sba(iclasses.towerAI
Action
p881
(dp882
g3
g15
sg5
(lp883
g600
asg7
g53
sg9
(lp884
(I5
I9
tp885
asg12
g8
sba(iclasses.towerAI
Action
p886
(dp887
g3
g15
sg5
(lp888
g604
asg7
g53
sg9
(lp889
(I5
I10
tp890
asg12
g8
sba(iclasses.towerAI
Action
p891
(dp892
g3
g15
sg5
(lp893
g720
asg7
g839
sg9
(lp894
(I3
I3
tp895
asg12
g53
sba(iclasses.towerAI
Action
p896
(dp897
g3
g15
sg5
(lp898
g487
asg7
g158
sg9
(lp899
(I0
I4
tp900
asg12
g53
sba(iclasses.towerAI
Action
p901
(dp902
g3
g15
sg5
(lp903
g660
asg7
g53
sg9
(lp904
(I7
I9
tp905
asg12
g8
sba(iclasses.towerAI
Action
p906
(dp907
g3
g372
sg5
(lp908
g664
asg7
Nsg9
Nsg12
g8
sba(iclasses.towerAI
Action
p909
(dp910
g3
g15
sg5
(lp911
g905
asg7
g377
sg9
(lp912
(I7
I8
tp913
a(I8
I8
tp914
a(I7
I9
tp915
a(I8
I9
tp916
asg12
g53
sba(iclasses.towerAI
Action
p917
(dp918
g3
g15
sg5
(lp919
g537
asg7
g158
sg9
(lp920
(I0
I3
tp921
asg12
g53
sba(iclasses.towerAI
Action
p922
(dp923
g3
g15
sg5
(lp924
g608
asg7
g53
sg9
(lp925
(I5
I11
tp926
asg12
g8
sba(iclasses.towerAI
Action
p927
(dp928
g3
g15
sg5
(lp929
g612
asg7
g53
sg9
(lp930
(I5
I12
tp931
asg12
g8
sba(iclasses.towerAI
Action
p932
(dp933
g3
g15
sg5
(lp934
g542
asg7
g158
sg9
(lp935
(I0
I2
tp936
asg12
g53
sba(iclasses.towerAI
Action
p937
(dp938
g3
g15
sg5
(lp939
g82
asg7
g158
sg9
(lp940
(I0
I1
tp941
asg12
g53
sba(iclasses.towerAI
Action
p942
(dp943
g3
g372
sg5
(lp944
g42
ag43
ag44
ag45
asg7
Nsg9
Nsg12
g23
sba(iclasses.towerAI
Action
p945
(dp946
g3
g4
sg5
g6
sg7
g8
sg9
(lp947
(I2
I2
tp948
asg12
Nsba(iclasses.towerAI
Action
p949
(dp950
g3
g15
sg5
(lp951
g948
asg7
g53
sg9
(lp952
(I2
I2
tp953
asg12
g8
sba(iclasses.towerAI
Action
p954
(dp955
g3
g15
sg5
(lp956
g953
asg7
g377
sg9
(lp957
(I2
I1
tp958
a(I3
I1
tp959
a(I2
I2
tp960
a(I3
I2
tp961
asg12
g53
sba(iclasses.towerAI
Action
p962
(dp963
g3
g15
sg5
(lp964
g616
asg7
g53
sg9
(lp965
(I5
I13
tp966
asg12
g8
sba(iclasses.towerAI
Action
p967
(dp968
g3
g15
sg5
(lp969
g620
asg7
g53
sg9
(lp970
(I5
I14
tp971
asg12
g8
sba(iclasses.towerAI
Action
p972
(dp973
g3
g15
sg5
(lp974
g624
asg7
g53
sg9
(lp975
(I5
I15
tp976
asg12
g8
sba(iclasses.towerAI
Action
p977
(dp978
g3
g15
sg5
(lp979
g628
asg7
g53
sg9
(lp980
(I5
I16
tp981
asg12
g8
sba(iclasses.towerAI
Action
p982
(dp983
g3
g4
sg5
g6
sg7
g8
sg9
(lp984
(I10
I2
tp985
asg12
Nsba(iclasses.towerAI
Action
p986
(dp987
g3
g4
sg5
g6
sg7
g8
sg9
(lp988
(I10
I3
tp989
asg12
Nsba(iclasses.towerAI
Action
p990
(dp991
g3
g4
sg5
g6
sg7
g8
sg9
(lp992
(I10
I4
tp993
asg12
Nsba(iclasses.towerAI
Action
p994
(dp995
g3
g4
sg5
g6
sg7
g8
sg9
(lp996
(I10
I5
tp997
asg12
Nsba(iclasses.towerAI
Action
p998
(dp999
g3
g4
sg5
g6
sg7
g8
sg9
(lp1000
(I10
I6
tp1001
asg12
Nsba(iclasses.towerAI
Action
p1002
(dp1003
g3
g4
sg5
g6
sg7
g8
sg9
(lp1004
(I10
I7
tp1005
asg12
Nsba(iclasses.towerAI
Action
p1006
(dp1007
g3
g4
sg5
g6
sg7
g8
sg9
(lp1008
(I10
I8
tp1009
asg12
Nsba(iclasses.towerAI
Action
p1010
(dp1011
g3
g4
sg5
g6
sg7
g8
sg9
(lp1012
(I10
I9
tp1013
asg12
Nsba(iclasses.towerAI
Action
p1014
(dp1015
g3
g4
sg5
g6
sg7
g8
sg9
(lp1016
(I10
I10
tp1017
asg12
Nsba(iclasses.towerAI
Action
p1018
(dp1019
g3
g15
sg5
(lp1020
g547
asg7
g158
sg9
(lp1021
(I0
I0
tp1022
asg12
g53
sba(iclasses.towerAI
Action
p1023
(dp1024
g3
g372
sg5
(lp1025
g160
asg7
Nsg9
Nsg12
g158
sba(iclasses.towerAI
Action
p1026
(dp1027
g3
g372
sg5
(lp1028
g688
asg7
Nsg9
Nsg12
g8
sba(iclasses.towerAI
Action
p1029
(dp1030
g3
g372
sg5
(lp1031
g684
asg7
Nsg9
Nsg12
g8
sba(iclasses.towerAI
Action
p1032
(dp1033
g3
g372
sg5
(lp1034
g109
asg7
Nsg9
Nsg12
g53
sba(iclasses.towerAI
Action
p1035
(dp1036
g3
g15
sg5
(lp1037
g680
asg7
g53
sg9
(lp1038
(I7
I2
tp1039
asg12
g8
sba(iclasses.towerAI
Action
p1040
(dp1041
g3
g15
sg5
(lp1042
g1039
asg7
g377
sg9
(lp1043
(I7
I1
tp1044
a(I8
I1
tp1045
a(I7
I2
tp1046
a(I8
I2
tp1047
asg12
g53
sba(iclasses.towerAI
Action
p1048
(dp1049
g3
g372
sg5
(lp1050
g668
asg7
Nsg9
Nsg12
g8
sba(iclasses.towerAI
Action
p1051
(dp1052
g3
g15
sg5
(lp1053
g692
asg7
g17
sg9
(lp1054
(I7
I7
tp1055
asg12
g8
sba(iclasses.towerAI
Action
p1056
(dp1057
g3
g15
sg5
(lp1058
g1055
asg7
g164
sg9
(lp1059
(I7
I6
tp1060
a(I8
I6
tp1061
a(I7
I7
tp1062
a(I8
I7
tp1063
asg12
g17
sba(iclasses.towerAI
Action
p1064
(dp1065
g3
g15
sg5
(lp1066
g1060
ag1061
ag1062
ag1063
asg7
g173
sg9
(lp1067
(I7
I6
tp1068
a(I8
I6
tp1069
a(I7
I7
tp1070
a(I8
I7
tp1071
asg12
g164
sba(iclasses.towerAI
Action
p1072
(dp1073
g3
g372
sg5
(lp1074
g676
asg7
Nsg9
Nsg12
g8
sba(iclasses.towerAI
Action
p1075
(dp1076
g3
g15
sg5
(lp1077
g672
asg7
g53
sg9
(lp1078
(I7
I5
tp1079
asg12
g8
sba(iclasses.towerAI
Action
p1080
(dp1081
g3
g15
sg5
(lp1082
g1079
asg7
g377
sg9
(lp1083
(I7
I4
tp1084
a(I8
I4
tp1085
a(I7
I5
tp1086
a(I8
I5
tp1087
asg12
g53
sba(iclasses.towerAI
Action
p1088
(dp1089
g3
g4
sg5
g6
sg7
g8
sg9
(lp1090
(I9
I1
tp1091
asg12
Nsba(iclasses.towerAI
Action
p1092
(dp1093
g3
g4
sg5
g6
sg7
g8
sg9
(lp1094
(I7
I3
tp1095
asg12
Nsba(iclasses.towerAI
Action
p1096
(dp1097
g3
g4
sg5
g6
sg7
g8
sg9
(lp1098
(I8
I3
tp1099
asg12
Nsba(iclasses.towerAI
Action
p1100
(dp1101
g3
g15
sg5
(lp1102
g725
asg7
g158
sg9
(lp1103
(I5
I0
tp1104
asg12
g53
sba(iclasses.towerAI
Action
p1105
(dp1106
g3
g4
sg5
g6
sg7
g8
sg9
(lp1107
(I10
I11
tp1108
asg12
Nsba(iclasses.towerAI
Action
p1109
(dp1110
g3
g4
sg5
g6
sg7
g8
sg9
(lp1111
(I10
I12
tp1112
asg12
Nsba(iclasses.towerAI
Action
p1113
(dp1114
g3
g4
sg5
g6
sg7
g8
sg9
(lp1115
(I10
I13
tp1116
asg12
Nsba(iclasses.towerAI
Action
p1117
(dp1118
g3
g4
sg5
g6
sg7
g8
sg9
(lp1119
(I10
I14
tp1120
asg12
Nsba(iclasses.towerAI
Action
p1121
(dp1122
g3
g4
sg5
g6
sg7
g8
sg9
(lp1123
(I10
I15
tp1124
asg12
Nsba(iclasses.towerAI
Action
p1125
(dp1126
g3
g4
sg5
g6
sg7
g8
sg9
(lp1127
(I10
I16
tp1128
asg12
Nsba(iclasses.towerAI
Action
p1129
(dp1130
g3
g4
sg5
g6
sg7
g8
sg9
(lp1131
(I12
I17
tp1132
asg12
Nsba(iclasses.towerAI
Action
p1133
(dp1134
g3
g15
sg5
(lp1135
g1132
asg7
g17
sg9
(lp1136
(I12
I17
tp1137
asg12
g8
sba(iclasses.towerAI
Action
p1138
(dp1139
g3
g15
sg5
(lp1140
g1137
asg7
g23
sg9
(lp1141
(I12
I16
tp1142
a(I13
I16
tp1143
a(I12
I17
tp1144
a(I13
I17
tp1145
asg12
g17
sba(iclasses.towerAI
Action
p1146
(dp1147
g3
g4
sg5
g6
sg7
g8
sg9
(lp1148
(I12
I15
tp1149
asg12
Nsba(iclasses.towerAI
Action
p1150
(dp1151
g3
g4
sg5
g6
sg7
g8
sg9
(lp1152
(I12
I14
tp1153
asg12
Nsba(iclasses.towerAI
Action
p1154
(dp1155
g3
g4
sg5
g6
sg7
g8
sg9
(lp1156
(I12
I13
tp1157
asg12
Nsba(iclasses.towerAI
Action
p1158
(dp1159
g3
g4
sg5
g6
sg7
g8
sg9
(lp1160
(I12
I12
tp1161
asg12
Nsba(iclasses.towerAI
Action
p1162
(dp1163
g3
g4
sg5
g6
sg7
g8
sg9
(lp1164
(I12
I11
tp1165
asg12
Nsba(iclasses.towerAI
Action
p1166
(dp1167
g3
g4
sg5
g6
sg7
g8
sg9
(lp1168
(I12
I10
tp1169
asg12
Nsba(iclasses.towerAI
Action
p1170
(dp1171
g3
g4
sg5
g6
sg7
g8
sg9
(lp1172
(I12
I9
tp1173
asg12
Nsba(iclasses.towerAI
Action
p1174
(dp1175
g3
g4
sg5
g6
sg7
g8
sg9
(lp1176
(I12
I8
tp1177
asg12
Nsba(iclasses.towerAI
Action
p1178
(dp1179
g3
g4
sg5
g6
sg7
g8
sg9
(lp1180
(I12
I7
tp1181
asg12
Nsba(iclasses.towerAI
Action
p1182
(dp1183
g3
g4
sg5
g6
sg7
g8
sg9
(lp1184
(I12
I6
tp1185
asg12
Nsba(iclasses.towerAI
Action
p1186
(dp1187
g3
g4
sg5
g6
sg7
g8
sg9
(lp1188
(I12
I5
tp1189
asg12
Nsba(iclasses.towerAI
Action
p1190
(dp1191
g3
g4
sg5
g6
sg7
g8
sg9
(lp1192
(I12
I4
tp1193
asg12
Nsba(iclasses.towerAI
Action
p1194
(dp1195
g3
g4
sg5
g6
sg7
g8
sg9
(lp1196
(I12
I3
tp1197
asg12
Nsba(iclasses.towerAI
Action
p1198
(dp1199
g3
g4
sg5
g6
sg7
g8
sg9
(lp1200
(I12
I2
tp1201
asg12
Nsba(iclasses.towerAI
Action
p1202
(dp1203
g3
g372
sg5
(lp1204
g1091
asg7
Nsg9
Nsg12
g8
sba(iclasses.towerAI
Action
p1205
(dp1206
g3
g372
sg5
(lp1207
g145
asg7
Nsg9
Nsg12
g53
sba(iclasses.towerAI
Action
p1208
(dp1209
g3
g4
sg5
g6
sg7
g8
sg9
(lp1210
(I10
I0
tp1211
asg12
Nsba(iclasses.towerAI
Action
p1212
(dp1213
g3
g15
sg5
(lp1214
g730
asg7
g158
sg9
(lp1215
(I5
I1
tp1216
asg12
g53
sba(iclasses.towerAI
Action
p1217
(dp1218
g3
g15
sg5
(lp1219
g735
asg7
g158
sg9
(lp1220
(I5
I2
tp1221
asg12
g53
sba(iclasses.towerAI
Action
p1222
(dp1223
g3
g15
sg5
(lp1224
g1211
asg7
g53
sg9
(lp1225
(I10
I0
tp1226
asg12
g8
sba(iclasses.towerAI
Action
p1227
(dp1228
g3
g15
sg5
(lp1229
g1095
asg7
g53
sg9
(lp1230
(I7
I3
tp1231
asg12
g8
sba(iclasses.towerAI
Action
p1232
(dp1233
g3
g15
sg5
(lp1234
g1099
asg7
g53
sg9
(lp1235
(I8
I3
tp1236
asg12
g8
sba(iclasses.towerAI
Action
p1237
(dp1238
g3
g15
sg5
(lp1239
g740
asg7
g158
sg9
(lp1240
(I5
I3
tp1241
asg12
g53
sba(iclasses.towerAI
Action
p1242
(dp1243
g3
g15
sg5
(lp1244
g745
asg7
g158
sg9
(lp1245
(I5
I4
tp1246
asg12
g53
sba(iclasses.towerAI
Action
p1247
(dp1248
g3
g15
sg5
(lp1249
g1231
asg7
g839
sg9
(lp1250
(I7
I3
tp1251
asg12
g53
sba(iclasses.towerAI
Action
p1252
(dp1253
g3
g15
sg5
(lp1254
g1236
asg7
g839
sg9
(lp1255
(I8
I3
tp1256
asg12
g53
sba(iclasses.towerAI
Action
p1257
(dp1258
g3
g15
sg5
(lp1259
g750
asg7
g158
sg9
(lp1260
(I5
I5
tp1261
asg12
g53
sba(iclasses.towerAI
Action
p1262
(dp1263
g3
g15
sg5
(lp1264
g755
asg7
g158
sg9
(lp1265
(I5
I6
tp1266
asg12
g53
sba(iclasses.towerAI
Action
p1267
(dp1268
g3
g15
sg5
(lp1269
g985
asg7
g53
sg9
(lp1270
(I10
I2
tp1271
asg12
g8
sba(iclasses.towerAI
Action
p1272
(dp1273
g3
g15
sg5
(lp1274
g989
asg7
g53
sg9
(lp1275
(I10
I3
tp1276
asg12
g8
sba(iclasses.towerAI
Action
p1277
(dp1278
g3
g15
sg5
(lp1279
g993
asg7
g53
sg9
(lp1280
(I10
I4
tp1281
asg12
g8
sba(iclasses.towerAI
Action
p1282
(dp1283
g3
g15
sg5
(lp1284
g997
asg7
g53
sg9
(lp1285
(I10
I5
tp1286
asg12
g8
sba(iclasses.towerAI
Action
p1287
(dp1288
g3
g15
sg5
(lp1289
g1001
asg7
g53
sg9
(lp1290
(I10
I6
tp1291
asg12
g8
sba(iclasses.towerAI
Action
p1292
(dp1293
g3
g4
sg5
g6
sg7
g8
sg9
(lp1294
(I15
I2
tp1295
asg12
Nsba(iclasses.towerAI
Action
p1296
(dp1297
g3
g15
sg5
(lp1298
g780
asg7
g158
sg9
(lp1299
(I5
I7
tp1300
asg12
g53
sba(iclasses.towerAI
Action
p1301
(dp1302
g3
g15
sg5
(lp1303
g835
asg7
g158
sg9
(lp1304
(I5
I8
tp1305
asg12
g53
sba(iclasses.towerAI
Action
p1306
(dp1307
g3
g15
sg5
(lp1308
g885
asg7
g158
sg9
(lp1309
(I5
I9
tp1310
asg12
g53
sba(iclasses.towerAI
Action
p1311
(dp1312
g3
g15
sg5
(lp1313
g890
asg7
g158
sg9
(lp1314
(I5
I10
tp1315
asg12
g53
sba(iclasses.towerAI
Action
p1316
(dp1317
g3
g15
sg5
(lp1318
g926
asg7
g158
sg9
(lp1319
(I5
I11
tp1320
asg12
g53
sba(iclasses.towerAI
Action
p1321
(dp1322
g3
g15
sg5
(lp1323
g931
asg7
g158
sg9
(lp1324
(I5
I12
tp1325
asg12
g53
sba(iclasses.towerAI
Action
p1326
(dp1327
g3
g15
sg5
(lp1328
g1005
asg7
g53
sg9
(lp1329
(I10
I7
tp1330
asg12
g8
sba(iclasses.towerAI
Action
p1331
(dp1332
g3
g15
sg5
(lp1333
g1009
asg7
g53
sg9
(lp1334
(I10
I8
tp1335
asg12
g8
sba(iclasses.towerAI
Action
p1336
(dp1337
g3
g4
sg5
g6
sg7
g8
sg9
(lp1338
(I15
I3
tp1339
asg12
Nsba(iclasses.towerAI
Action
p1340
(dp1341
g3
g15
sg5
(lp1342
g966
asg7
g158
sg9
(lp1343
(I5
I13
tp1344
asg12
g53
sba(iclasses.towerAI
Action
p1345
(dp1346
g3
g15
sg5
(lp1347
g971
asg7
g158
sg9
(lp1348
(I5
I14
tp1349
asg12
g53
sba(iclasses.towerAI
Action
p1350
(dp1351
g3
g15
sg5
(lp1352
g976
asg7
g158
sg9
(lp1353
(I5
I15
tp1354
asg12
g53
sba(iclasses.towerAI
Action
p1355
(dp1356
g3
g15
sg5
(lp1357
g981
asg7
g158
sg9
(lp1358
(I5
I16
tp1359
asg12
g53
sba(iclasses.towerAI
Action
p1360
(dp1361
g3
g15
sg5
(lp1362
g1013
asg7
g53
sg9
(lp1363
(I10
I9
tp1364
asg12
g8
sba(iclasses.towerAI
Action
p1365
(dp1366
g3
g15
sg5
(lp1367
g1017
asg7
g53
sg9
(lp1368
(I10
I10
tp1369
asg12
g8
sba(iclasses.towerAI
Action
p1370
(dp1371
g3
g15
sg5
(lp1372
g1108
asg7
g53
sg9
(lp1373
(I10
I11
tp1374
asg12
g8
sba(iclasses.towerAI
Action
p1375
(dp1376
g3
g15
sg5
(lp1377
g1112
asg7
g53
sg9
(lp1378
(I10
I12
tp1379
asg12
g8
sba(iclasses.towerAI
Action
p1380
(dp1381
g3
g15
sg5
(lp1382
g1116
asg7
g53
sg9
(lp1383
(I10
I13
tp1384
asg12
g8
sba(iclasses.towerAI
Action
p1385
(dp1386
g3
g15
sg5
(lp1387
g1120
asg7
g53
sg9
(lp1388
(I10
I14
tp1389
asg12
g8
sba(iclasses.towerAI
Action
p1390
(dp1391
g3
g15
sg5
(lp1392
g1124
asg7
g53
sg9
(lp1393
(I10
I15
tp1394
asg12
g8
sba(iclasses.towerAI
Action
p1395
(dp1396
g3
g15
sg5
(lp1397
g1128
asg7
g53
sg9
(lp1398
(I10
I16
tp1399
asg12
g8
sba(iclasses.towerAI
Action
p1400
(dp1401
g3
g4
sg5
g6
sg7
g8
sg9
(lp1402
(I15
I4
tp1403
asg12
Nsba(iclasses.towerAI
Action
p1404
(dp1405
g3
g4
sg5
g6
sg7
g8
sg9
(lp1406
(I15
I5
tp1407
asg12
Nsba(iclasses.towerAI
Action
p1408
(dp1409
g3
g4
sg5
g6
sg7
g8
sg9
(lp1410
(I15
I6
tp1411
asg12
Nsba(iclasses.towerAI
Action
p1412
(dp1413
g3
g4
sg5
g6
sg7
g8
sg9
(lp1414
(I15
I7
tp1415
asg12
Nsba(iclasses.towerAI
Action
p1416
(dp1417
g3
g15
sg5
(lp1418
g1226
asg7
g158
sg9
(lp1419
(I10
I0
tp1420
asg12
g53
sba(iclasses.towerAI
Action
p1421
(dp1422
g3
g15
sg5
(lp1423
g1149
asg7
g17
sg9
(lp1424
(I12
I15
tp1425
asg12
g8
sba(iclasses.towerAI
Action
p1426
(dp1427
g3
g372
sg5
(lp1428
g1153
asg7
Nsg9
Nsg12
g8
sba(iclasses.towerAI
Action
p1429
(dp1430
g3
g15
sg5
(lp1431
g1425
asg7
g164
sg9
(lp1432
(I12
I14
tp1433
a(I13
I14
tp1434
a(I12
I15
tp1435
a(I13
I15
tp1436
asg12
g17
sba(iclasses.towerAI
Action
p1437
(dp1438
g3
g15
sg5
(lp1439
g1433
ag1434
ag1435
ag1436
asg7
g173
sg9
(lp1440
(I12
I14
tp1441
a(I13
I14
tp1442
a(I12
I15
tp1443
a(I13
I15
tp1444
asg12
g164
sba(iclasses.towerAI
Action
p1445
(dp1446
g3
g15
sg5
(lp1447
g127
asg7
g158
sg9
(lp1448
(I10
I1
tp1449
asg12
g53
sba(iclasses.towerAI
Action
p1450
(dp1451
g3
g15
sg5
(lp1452
g1157
asg7
g53
sg9
(lp1453
(I12
I13
tp1454
asg12
g8
sba(iclasses.towerAI
Action
p1455
(dp1456
g3
g372
sg5
(lp1457
g1161
asg7
Nsg9
Nsg12
g8
sba(iclasses.towerAI
Action
p1458
(dp1459
g3
g15
sg5
(lp1460
g1454
asg7
g377
sg9
(lp1461
(I12
I12
tp1462
a(I13
I12
tp1463
a(I12
I13
tp1464
a(I13
I13
tp1465
asg12
g53
sba(iclasses.towerAI
Action
p1466
(dp1467
g3
g4
sg5
g6
sg7
g8
sg9
(lp1468
(I15
I8
tp1469
asg12
Nsba(iclasses.towerAI
Action
p1470
(dp1471
g3
g4
sg5
g6
sg7
g8
sg9
(lp1472
(I15
I9
tp1473
asg12
Nsba(iclasses.towerAI
Action
p1474
(dp1475
g3
g4
sg5
g6
sg7
g8
sg9
(lp1476
(I15
I10
tp1477
asg12
Nsba(iclasses.towerAI
Action
p1478
(dp1479
g3
g4
sg5
g6
sg7
g8
sg9
(lp1480
(I15
I11
tp1481
asg12
Nsba(iclasses.towerAI
Action
p1482
(dp1483
g3
g4
sg5
g6
sg7
g8
sg9
(lp1484
(I15
I12
tp1485
asg12
Nsba(iclasses.towerAI
Action
p1486
(dp1487
g3
g4
sg5
g6
sg7
g8
sg9
(lp1488
(I15
I13
tp1489
asg12
Nsba(iclasses.towerAI
Action
p1490
(dp1491
g3
g4
sg5
g6
sg7
g8
sg9
(lp1492
(I15
I14
tp1493
asg12
Nsba(iclasses.towerAI
Action
p1494
(dp1495
g3
g4
sg5
g6
sg7
g8
sg9
(lp1496
(I15
I15
tp1497
asg12
Nsba(iclasses.towerAI
Action
p1498
(dp1499
g3
g4
sg5
g6
sg7
g8
sg9
(lp1500
(I15
I16
tp1501
asg12
Nsba(iclasses.towerAI
Action
p1502
(dp1503
g3
g4
sg5
g6
sg7
g8
sg9
(lp1504
(I17
I17
tp1505
asg12
Nsba(iclasses.towerAI
Action
p1506
(dp1507
g3
g4
sg5
g6
sg7
g8
sg9
(lp1508
(I17
I16
tp1509
asg12
Nsba(iclasses.towerAI
Action
p1510
(dp1511
g3
g4
sg5
g6
sg7
g8
sg9
(lp1512
(I17
I15
tp1513
asg12
Nsba(iclasses.towerAI
Action
p1514
(dp1515
g3
g4
sg5
g6
sg7
g8
sg9
(lp1516
(I17
I14
tp1517
asg12
Nsba(iclasses.towerAI
Action
p1518
(dp1519
g3
g4
sg5
g6
sg7
g8
sg9
(lp1520
(I17
I13
tp1521
asg12
Nsba(iclasses.towerAI
Action
p1522
(dp1523
g3
g4
sg5
g6
sg7
g8
sg9
(lp1524
(I17
I12
tp1525
asg12
Nsba(iclasses.towerAI
Action
p1526
(dp1527
g3
g4
sg5
g6
sg7
g8
sg9
(lp1528
(I17
I11
tp1529
asg12
Nsba(iclasses.towerAI
Action
p1530
(dp1531
g3
g4
sg5
g6
sg7
g8
sg9
(lp1532
(I17
I10
tp1533
asg12
Nsba(iclasses.towerAI
Action
p1534
(dp1535
g3
g15
sg5
(lp1536
g1271
asg7
g158
sg9
(lp1537
(I10
I2
tp1538
asg12
g53
sba(iclasses.towerAI
Action
p1539
(dp1540
g3
g15
sg5
(lp1541
g1165
asg7
g17
sg9
(lp1542
(I12
I11
tp1543
asg12
g8
sba(iclasses.towerAI
Action
p1544
(dp1545
g3
g372
sg5
(lp1546
g1169
asg7
Nsg9
Nsg12
g8
sba(iclasses.towerAI
Action
p1547
(dp1548
g3
g15
sg5
(lp1549
g1543
asg7
g164
sg9
(lp1550
(I12
I10
tp1551
a(I13
I10
tp1552
a(I12
I11
tp1553
a(I13
I11
tp1554
asg12
g17
sba(iclasses.towerAI
Action
p1555
(dp1556
g3
g15
sg5
(lp1557
g1551
ag1552
ag1553
ag1554
asg7
g173
sg9
(lp1558
(I12
I10
tp1559
a(I13
I10
tp1560
a(I12
I11
tp1561
a(I13
I11
tp1562
asg12
g164
sba(iclasses.towerAI
Action
p1563
(dp1564
g3
g15
sg5
(lp1565
g1276
asg7
g158
sg9
(lp1566
(I10
I3
tp1567
asg12
g53
sba(iclasses.towerAI
Action
p1568
(dp1569
g3
g15
sg5
(lp1570
g1173
asg7
g53
sg9
(lp1571
(I12
I9
tp1572
asg12
g8
sba(iclasses.towerAI
Action
p1573
(dp1574
g3
g372
sg5
(lp1575
g1177
asg7
Nsg9
Nsg12
g8
sba(iclasses.towerAI
Action
p1576
(dp1577
g3
g15
sg5
(lp1578
g1572
asg7
g377
sg9
(lp1579
(I12
I8
tp1580
a(I13
I8
tp1581
a(I12
I9
tp1582
a(I13
I9
tp1583
asg12
g53
sba(iclasses.towerAI
Action
p1584
(dp1585
g3
g15
sg5
(lp1586
g1295
asg7
g53
sg9
(lp1587
(I15
I2
tp1588
asg12
g8
sba(iclasses.towerAI
Action
p1589
(dp1590
g3
g15
sg5
(lp1591
g1339
asg7
g53
sg9
(lp1592
(I15
I3
tp1593
asg12
g8
sba(iclasses.towerAI
Action
p1594
(dp1595
g3
g15
sg5
(lp1596
g1403
asg7
g53
sg9
(lp1597
(I15
I4
tp1598
asg12
g8
sba(iclasses.towerAI
Action
p1599
(dp1600
g3
g15
sg5
(lp1601
g1407
asg7
g53
sg9
(lp1602
(I15
I5
tp1603
asg12
g8
sba(iclasses.towerAI
Action
p1604
(dp1605
g3
g15
sg5
(lp1606
g1411
asg7
g53
sg9
(lp1607
(I15
I6
tp1608
asg12
g8
sba(iclasses.towerAI
Action
p1609
(dp1610
g3
g15
sg5
(lp1611
g1415
asg7
g53
sg9
(lp1612
(I15
I7
tp1613
asg12
g8
sba(iclasses.towerAI
Action
p1614
(dp1615
g3
g372
sg5
(lp1616
g136
asg7
Nsg9
Nsg12
g53
sba(iclasses.towerAI
Action
p1617
(dp1618
g3
g4
sg5
g6
sg7
g8
sg9
(lp1619
(I17
I9
tp1620
asg12
Nsba(iclasses.towerAI
Action
p1621
(dp1622
g3
g4
sg5
g6
sg7
g8
sg9
(lp1623
(I17
I8
tp1624
asg12
Nsba(iclasses.towerAI
Action
p1625
(dp1626
g3
g4
sg5
g6
sg7
g8
sg9
(lp1627
(I17
I7
tp1628
asg12
Nsba(iclasses.towerAI
Action
p1629
(dp1630
g3
g4
sg5
g6
sg7
g8
sg9
(lp1631
(I17
I6
tp1632
asg12
Nsba(iclasses.towerAI
Action
p1633
(dp1634
g3
g4
sg5
g6
sg7
g8
sg9
(lp1635
(I17
I5
tp1636
asg12
Nsba(iclasses.towerAI
Action
p1637
(dp1638
g3
g4
sg5
g6
sg7
g8
sg9
(lp1639
(I17
I4
tp1640
asg12
Nsba(iclasses.towerAI
Action
p1641
(dp1642
g3
g4
sg5
g6
sg7
g8
sg9
(lp1643
(I17
I2
tp1644
asg12
Nsba(iclasses.towerAI
Action
p1645
(dp1646
g3
g4
sg5
g6
sg7
g8
sg9
(lp1647
(I17
I3
tp1648
asg12
Nsba(iclasses.towerAI
Action
p1649
(dp1650
g3
g372
sg5
(lp1651
g205
asg7
Nsg9
Nsg12
g53
sba(iclasses.towerAI
Action
p1652
(dp1653
g3
g4
sg5
g6
sg7
g8
sg9
(lp1654
(I15
I0
tp1655
asg12
Nsba(iclasses.towerAI
Action
p1656
(dp1657
g3
g372
sg5
(lp1658
g196
asg7
Nsg9
Nsg12
g53
sba(iclasses.towerAI
Action
p1659
(dp1660
g3
g372
sg5
(lp1661
g187
asg7
Nsg9
Nsg12
g53
sba(iclasses.towerAI
Action
p1662
(dp1663
g3
g15
sg5
(lp1664
g1201
asg7
g53
sg9
(lp1665
(I12
I2
tp1666
asg12
g8
sba(iclasses.towerAI
Action
p1667
(dp1668
g3
g15
sg5
(lp1669
g1666
asg7
g377
sg9
(lp1670
(I12
I1
tp1671
a(I13
I1
tp1672
a(I12
I2
tp1673
a(I13
I2
tp1674
asg12
g53
sba(iclasses.towerAI
Action
p1675
(dp1676
g3
g372
sg5
(lp1677
g1189
asg7
Nsg9
Nsg12
g8
sba(iclasses.towerAI
Action
p1678
(dp1679
g3
g372
sg5
(lp1680
g1185
asg7
Nsg9
Nsg12
g8
sba(iclasses.towerAI
Action
p1681
(dp1682
g3
g15
sg5
(lp1683
g1181
asg7
g17
sg9
(lp1684
(I12
I7
tp1685
asg12
g8
sba(iclasses.towerAI
Action
p1686
(dp1687
g3
g15
sg5
(lp1688
g1685
asg7
g164
sg9
(lp1689
(I12
I6
tp1690
a(I13
I6
tp1691
a(I12
I7
tp1692
a(I13
I7
tp1693
asg12
g17
sba(iclasses.towerAI
Action
p1694
(dp1695
g3
g15
sg5
(lp1696
g1690
ag1691
ag1692
ag1693
asg7
g173
sg9
(lp1697
(I12
I6
tp1698
a(I13
I6
tp1699
a(I12
I7
tp1700
a(I13
I7
tp1701
asg12
g164
sba(iclasses.towerAI
Action
p1702
(dp1703
g3
g15
sg5
(lp1704
g1193
asg7
g53
sg9
(lp1705
(I12
I5
tp1706
asg12
g8
sba(iclasses.towerAI
Action
p1707
(dp1708
g3
g15
sg5
(lp1709
g1706
asg7
g377
sg9
(lp1710
(I12
I4
tp1711
a(I13
I4
tp1712
a(I12
I5
tp1713
a(I13
I5
tp1714
asg12
g53
sba(iclasses.towerAI
Action
p1715
(dp1716
g3
g4
sg5
g6
sg7
g8
sg9
(lp1717
(I13
I3
tp1718
asg12
Nsba(iclasses.towerAI
Action
p1719
(dp1720
g3
g15
sg5
(lp1721
g1281
asg7
g158
sg9
(lp1722
(I10
I4
tp1723
asg12
g53
sba(iclasses.towerAI
Action
p1724
(dp1725
g3
g15
sg5
(lp1726
g1469
asg7
g53
sg9
(lp1727
(I15
I8
tp1728
asg12
g8
sba(iclasses.towerAI
Action
p1729
(dp1730
g3
g15
sg5
(lp1731
g1473
asg7
g53
sg9
(lp1732
(I15
I9
tp1733
asg12
g8
sba(iclasses.towerAI
Action
p1734
(dp1735
g3
g15
sg5
(lp1736
g1477
asg7
g53
sg9
(lp1737
(I15
I10
tp1738
asg12
g8
sba(iclasses.towerAI
Action
p1739
(dp1740
g3
g15
sg5
(lp1741
g1286
asg7
g158
sg9
(lp1742
(I10
I5
tp1743
asg12
g53
sba(iclasses.towerAI
Action
p1744
(dp1745
g3
g15
sg5
(lp1746
g1197
asg7
g53
sg9
(lp1747
(I12
I3
tp1748
asg12
g8
sba(iclasses.towerAI
Action
p1749
(dp1750
g3
g15
sg5
(lp1751
g1718
asg7
g53
sg9
(lp1752
(I13
I3
tp1753
asg12
g8
sba(iclasses.towerAI
Action
p1754
(dp1755
g3
g15
sg5
(lp1756
g1291
asg7
g158
sg9
(lp1757
(I10
I6
tp1758
asg12
g53
sba(iclasses.towerAI
Action
p1759
(dp1760
g3
g15
sg5
(lp1761
g1330
asg7
g158
sg9
(lp1762
(I10
I7
tp1763
asg12
g53
sba(iclasses.towerAI
Action
p1764
(dp1765
g3
g15
sg5
(lp1766
g1335
asg7
g158
sg9
(lp1767
(I10
I8
tp1768
asg12
g53
sba(iclasses.towerAI
Action
p1769
(dp1770
g3
g15
sg5
(lp1771
g1364
asg7
g158
sg9
(lp1772
(I10
I9
tp1773
asg12
g53
sba(iclasses.towerAI
Action
p1774
(dp1775
g3
g15
sg5
(lp1776
g1481
asg7
g53
sg9
(lp1777
(I15
I11
tp1778
asg12
g8
sba(iclasses.towerAI
Action
p1779
(dp1780
g3
g15
sg5
(lp1781
g1485
asg7
g53
sg9
(lp1782
(I15
I12
tp1783
asg12
g8
sba(iclasses.towerAI
Action
p1784
(dp1785
g3
g15
sg5
(lp1786
g1489
asg7
g53
sg9
(lp1787
(I15
I13
tp1788
asg12
g8
sba(iclasses.towerAI
Action
p1789
(dp1790
g3
g15
sg5
(lp1791
g1369
asg7
g158
sg9
(lp1792
(I10
I10
tp1793
asg12
g53
sba(iclasses.towerAI
Action
p1794
(dp1795
g3
g15
sg5
(lp1796
g1374
asg7
g158
sg9
(lp1797
(I10
I11
tp1798
asg12
g53
sba(iclasses.towerAI
Action
p1799
(dp1800
g3
g15
sg5
(lp1801
g1379
asg7
g158
sg9
(lp1802
(I10
I12
tp1803
asg12
g53
sba(iclasses.towerAI
Action
p1804
(dp1805
g3
g15
sg5
(lp1806
g1384
asg7
g158
sg9
(lp1807
(I10
I13
tp1808
asg12
g53
sba(iclasses.towerAI
Action
p1809
(dp1810
g3
g15
sg5
(lp1811
g1389
asg7
g158
sg9
(lp1812
(I10
I14
tp1813
asg12
g53
sba(iclasses.towerAI
Action
p1814
(dp1815
g3
g15
sg5
(lp1816
g1655
asg7
g53
sg9
(lp1817
(I15
I0
tp1818
asg12
g8
sba(iclasses.towerAI
Action
p1819
(dp1820
g3
g15
sg5
(lp1821
g1493
asg7
g17
sg9
(lp1822
(I15
I14
tp1823
asg12
g8
sba(iclasses.towerAI
Action
p1824
(dp1825
g3
g15
sg5
(lp1826
g1497
asg7
g17
sg9
(lp1827
(I15
I15
tp1828
asg12
g8
sba(iclasses.towerAI
Action
p1829
(dp1830
g3
g15
sg5
(lp1831
g1394
asg7
g158
sg9
(lp1832
(I10
I15
tp1833
asg12
g53
sba(iclasses.towerAI
Action
p1834
(dp1835
g3
g15
sg5
(lp1836
g1399
asg7
g158
sg9
(lp1837
(I10
I16
tp1838
asg12
g53
sba(iclasses.towerAI
Action
p1839
(dp1840
g3
g372
sg5
(lp1841
g1828
asg7
Nsg9
Nsg12
g17
sba(iclasses.towerAI
Action
p1842
(dp1843
g3
g372
sg5
(lp1844
g1823
asg7
Nsg9
Nsg12
g17
sba(iclasses.towerAI
Action
p1845
(dp1846
g3
g4
sg5
g6
sg7
g8
sg9
(lp1847
(I15
I14
tp1848
asg12
Nsba(iclasses.towerAI
Action
p1849
(dp1850
g3
g4
sg5
g6
sg7
g8
sg9
(lp1851
(I15
I15
tp1852
asg12
Nsba(iclasses.towerAI
Action
p1853
(dp1854
g3
g15
sg5
(lp1855
g1848
asg7
g53
sg9
(lp1856
(I15
I14
tp1857
asg12
g8
sba(iclasses.towerAI
Action
p1858
(dp1859
g3
g15
sg5
(lp1860
g1852
asg7
g53
sg9
(lp1861
(I15
I15
tp1862
asg12
g8
sba(iclasses.towerAI
Action
p1863
(dp1864
g3
g15
sg5
(lp1865
g1501
asg7
g53
sg9
(lp1866
(I15
I16
tp1867
asg12
g8
sba(iclasses.towerAI
Action
p1868
(dp1869
g3
g15
sg5
(lp1870
g1818
asg7
g158
sg9
(lp1871
(I15
I0
tp1872
asg12
g53
sba(iclasses.towerAI
Action
p1873
(dp1874
g3
g372
sg5
(lp1875
g55
asg7
Nsg9
Nsg12
g53
sba(iclasses.towerAI
Action
p1876
(dp1877
g3
g372
sg5
(lp1878
g25
ag26
ag27
ag28
asg7
Nsg9
Nsg12
g23
sba(iclasses.towerAI
Action
p1879
(dp1880
g3
g4
sg5
g6
sg7
g8
sg9
(lp1881
(I21
I0
tp1882
asg12
Nsba(iclasses.towerAI
Action
p1883
(dp1884
g3
g4
sg5
g6
sg7
g8
sg9
(lp1885
(I21
I1
tp1886
asg12
Nsba(iclasses.towerAI
Action
p1887
(dp1888
g3
g4
sg5
g6
sg7
g8
sg9
(lp1889
(I21
I2
tp1890
asg12
Nsba(iclasses.towerAI
Action
p1891
(dp1892
g3
g4
sg5
g6
sg7
g8
sg9
(lp1893
(I21
I3
tp1894
asg12
Nsba(iclasses.towerAI
Action
p1895
(dp1896
g3
g4
sg5
g6
sg7
g8
sg9
(lp1897
(I21
I4
tp1898
asg12
Nsba(iclasses.towerAI
Action
p1899
(dp1900
g3
g4
sg5
g6
sg7
g8
sg9
(lp1901
(I21
I5
tp1902
asg12
Nsba(iclasses.towerAI
Action
p1903
(dp1904
g3
g4
sg5
g6
sg7
g8
sg9
(lp1905
(I21
I6
tp1906
asg12
Nsba(iclasses.towerAI
Action
p1907
(dp1908
g3
g4
sg5
g6
sg7
g8
sg9
(lp1909
(I21
I7
tp1910
asg12
Nsba(iclasses.towerAI
Action
p1911
(dp1912
g3
g4
sg5
g6
sg7
g8
sg9
(lp1913
(I21
I8
tp1914
asg12
Nsba(iclasses.towerAI
Action
p1915
(dp1916
g3
g4
sg5
g6
sg7
g8
sg9
(lp1917
(I21
I9
tp1918
asg12
Nsba(iclasses.towerAI
Action
p1919
(dp1920
g3
g4
sg5
g6
sg7
g8
sg9
(lp1921
(I21
I11
tp1922
asg12
Nsba(iclasses.towerAI
Action
p1923
(dp1924
g3
g4
sg5
g6
sg7
g8
sg9
(lp1925
(I21
I10
tp1926
asg12
Nsba(iclasses.towerAI
Action
p1927
(dp1928
g3
g4
sg5
g6
sg7
g8
sg9
(lp1929
(I21
I12
tp1930
asg12
Nsba(iclasses.towerAI
Action
p1931
(dp1932
g3
g4
sg5
g6
sg7
g8
sg9
(lp1933
(I21
I13
tp1934
asg12
Nsba(iclasses.towerAI
Action
p1935
(dp1936
g3
g4
sg5
g6
sg7
g8
sg9
(lp1937
(I21
I14
tp1938
asg12
Nsba(iclasses.towerAI
Action
p1939
(dp1940
g3
g4
sg5
g6
sg7
g8
sg9
(lp1941
(I21
I15
tp1942
asg12
Nsba(iclasses.towerAI
Action
p1943
(dp1944
g3
g4
sg5
g6
sg7
g8
sg9
(lp1945
(I21
I16
tp1946
asg12
Nsba(iclasses.towerAI
Action
p1947
(dp1948
g3
g372
sg5
(lp1949
g1882
asg7
Nsg9
Nsg12
g8
sba(iclasses.towerAI
Action
p1950
(dp1951
g3
g4
sg5
g6
sg7
g8
sg9
(lp1952
(I19
I1
tp1953
asg12
Nsba(iclasses.towerAI
Action
p1954
(dp1955
g3
g15
sg5
(lp1956
g1953
asg7
g17
sg9
(lp1957
(I19
I1
tp1958
asg12
g8
sba(iclasses.towerAI
Action
p1959
(dp1960
g3
g15
sg5
(lp1961
g1958
asg7
g23
sg9
(lp1962
(I19
I1
tp1963
a(I20
I1
tp1964
a(I19
I2
tp1965
a(I20
I2
tp1966
asg12
g17
sba(iclasses.towerAI
Action
p1967
(dp1968
g3
g15
sg5
(lp1969
g154
asg7
g158
sg9
(lp1970
(I15
I1
tp1971
asg12
g53
sba(iclasses.towerAI
Action
p1972
(dp1973
g3
g15
sg5
(lp1974
g1505
asg7
g17
sg9
(lp1975
(I17
I17
tp1976
asg12
g8
sba(iclasses.towerAI
Action
p1977
(dp1978
g3
g372
sg5
(lp1979
g1509
asg7
Nsg9
Nsg12
g8
sba(iclasses.towerAI
Action
p1980
(dp1981
g3
g15
sg5
(lp1982
g1976
asg7
g8
sg9
(lp1983
(I17
I17
tp1984
asg12
g17
sba(iclasses.towerAI
Action
p1985
(dp1986
g3
g15
sg5
(lp1987
g1984
asg7
g53
sg9
(lp1988
(I17
I17
tp1989
asg12
g8
sba(iclasses.towerAI
Action
p1990
(dp1991
g3
g4
sg5
g6
sg7
g8
sg9
(lp1992
(I17
I16
tp1993
asg12
Nsba(iclasses.towerAI
Action
p1994
(dp1995
g3
g15
sg5
(lp1996
g1993
asg7
g53
sg9
(lp1997
(I17
I16
tp1998
asg12
g8
sba(iclasses.towerAI
Action
p1999
(dp2000
g3
g372
sg5
(lp2001
g1998
asg7
Nsg9
Nsg12
g53
sba(iclasses.towerAI
Action
p2002
(dp2003
g3
g372
sg5
(lp2004
g1989
asg7
Nsg9
Nsg12
g53
sba(iclasses.towerAI
Action
p2005
(dp2006
g3
g4
sg5
g6
sg7
g8
sg9
(lp2007
(I17
I17
tp2008
asg12
Nsba(iclasses.towerAI
Action
p2009
(dp2010
g3
g15
sg5
(lp2011
g2008
asg7
g17
sg9
(lp2012
(I17
I17
tp2013
asg12
g8
sba(iclasses.towerAI
Action
p2014
(dp2015
g3
g15
sg5
(lp2016
g2013
asg7
g23
sg9
(lp2017
(I17
I16
tp2018
a(I18
I16
tp2019
a(I17
I17
tp2020
a(I18
I17
tp2021
asg12
g17
sba(iclasses.towerAI
Action
p2022
(dp2023
g3
g15
sg5
(lp2024
g1886
asg7
g53
sg9
(lp2025
(I21
I1
tp2026
asg12
g8
sba(iclasses.towerAI
Action
p2027
(dp2028
g3
g15
sg5
(lp2029
g1890
asg7
g53
sg9
(lp2030
(I21
I2
tp2031
asg12
g8
sba(iclasses.towerAI
Action
p2032
(dp2033
g3
g15
sg5
(lp2034
g1894
asg7
g53
sg9
(lp2035
(I21
I3
tp2036
asg12
g8
sba(iclasses.towerAI
Action
p2037
(dp2038
g3
g15
sg5
(lp2039
g1898
asg7
g53
sg9
(lp2040
(I21
I4
tp2041
asg12
g8
sba(iclasses.towerAI
Action
p2042
(dp2043
g3
g15
sg5
(lp2044
g1748
asg7
g839
sg9
(lp2045
(I12
I3
tp2046
asg12
g53
sba(iclasses.towerAI
Action
p2047
(dp2048
g3
g15
sg5
(lp2049
g1753
asg7
g839
sg9
(lp2050
(I13
I3
tp2051
asg12
g53
sba(iclasses.towerAI
Action
p2052
(dp2053
g3
g15
sg5
(lp2054
g1588
asg7
g158
sg9
(lp2055
(I15
I2
tp2056
asg12
g53
sba(iclasses.towerAI
Action
p2057
(dp2058
g3
g15
sg5
(lp2059
g1513
asg7
g17
sg9
(lp2060
(I17
I15
tp2061
asg12
g8
sba(iclasses.towerAI
Action
p2062
(dp2063
g3
g372
sg5
(lp2064
g1517
asg7
Nsg9
Nsg12
g8
sba(iclasses.towerAI
Action
p2065
(dp2066
g3
g15
sg5
(lp2067
g2061
asg7
g164
sg9
(lp2068
(I17
I14
tp2069
a(I18
I14
tp2070
a(I17
I15
tp2071
a(I18
I15
tp2072
asg12
g17
sba(iclasses.towerAI
Action
p2073
(dp2074
g3
g15
sg5
(lp2075
g2069
ag2070
ag2071
ag2072
asg7
g173
sg9
(lp2076
(I17
I14
tp2077
a(I18
I14
tp2078
a(I17
I15
tp2079
a(I18
I15
tp2080
asg12
g164
sba(iclasses.towerAI
Action
p2081
(dp2082
g3
g15
sg5
(lp2083
g1593
asg7
g158
sg9
(lp2084
(I15
I3
tp2085
asg12
g53
sba(iclasses.towerAI
Action
p2086
(dp2087
g3
g15
sg5
(lp2088
g1902
asg7
g53
sg9
(lp2089
(I21
I5
tp2090
asg12
g8
sba(iclasses.towerAI
Action
p2091
(dp2092
g3
g15
sg5
(lp2093
g1906
asg7
g53
sg9
(lp2094
(I21
I6
tp2095
asg12
g8
sba(iclasses.towerAI
Action
p2096
(dp2097
g3
g15
sg5
(lp2098
g1910
asg7
g53
sg9
(lp2099
(I21
I7
tp2100
asg12
g8
sba(iclasses.towerAI
Action
p2101
(dp2102
g3
g15
sg5
(lp2103
g1914
asg7
g53
sg9
(lp2104
(I21
I8
tp2105
asg12
g8
sba(iclasses.towerAI
Action
p2106
(dp2107
g3
g15
sg5
(lp2108
g1918
asg7
g53
sg9
(lp2109
(I21
I9
tp2110
asg12
g8
sba(iclasses.towerAI
Action
p2111
(dp2112
g3
g15
sg5
(lp2113
g1926
asg7
g53
sg9
(lp2114
(I21
I10
tp2115
asg12
g8
sba(iclasses.towerAI
Action
p2116
(dp2117
g3
g15
sg5
(lp2118
g1598
asg7
g8
sg9
(lp2119
(I15
I4
tp2120
asg12
g53
sba(iclasses.towerAI
Action
p2121
(dp2122
g3
g15
sg5
(lp2123
g2120
asg7
g53
sg9
(lp2124
(I15
I4
tp2125
asg12
g8
sba(iclasses.towerAI
Action
p2126
(dp2127
g3
g15
sg5
(lp2128
g2125
asg7
g158
sg9
(lp2129
(I15
I4
tp2130
asg12
g53
sba(iclasses.towerAI
Action
p2131
(dp2132
g3
g15
sg5
(lp2133
g1603
asg7
g158
sg9
(lp2134
(I15
I5
tp2135
asg12
g53
sba(iclasses.towerAI
Action
p2136
(dp2137
g3
g15
sg5
(lp2138
g1608
asg7
g158
sg9
(lp2139
(I15
I6
tp2140
asg12
g53
sba(iclasses.towerAI
Action
p2141
(dp2142
g3
g15
sg5
(lp2143
g1613
asg7
g158
sg9
(lp2144
(I15
I7
tp2145
asg12
g53
sba(iclasses.towerAI
Action
p2146
(dp2147
g3
g15
sg5
(lp2148
g1728
asg7
g158
sg9
(lp2149
(I15
I8
tp2150
asg12
g53
sba(iclasses.towerAI
Action
p2151
(dp2152
g3
g15
sg5
(lp2153
g1922
asg7
g53
sg9
(lp2154
(I21
I11
tp2155
asg12
g8
sba(iclasses.towerAI
Action
p2156
(dp2157
g3
g15
sg5
(lp2158
g1930
asg7
g53
sg9
(lp2159
(I21
I12
tp2160
asg12
g8
sba(iclasses.towerAI
Action
p2161
(dp2162
g3
g15
sg5
(lp2163
g1934
asg7
g53
sg9
(lp2164
(I21
I13
tp2165
asg12
g8
sba(iclasses.towerAI
Action
p2166
(dp2167
g3
g15
sg5
(lp2168
g1938
asg7
g53
sg9
(lp2169
(I21
I14
tp2170
asg12
g8
sba(iclasses.towerAI
Action
p2171
(dp2172
g3
g15
sg5
(lp2173
g1942
asg7
g53
sg9
(lp2174
(I21
I15
tp2175
asg12
g8
sba(iclasses.towerAI
Action
p2176
(dp2177
g3
g15
sg5
(lp2178
g1946
asg7
g53
sg9
(lp2179
(I21
I16
tp2180
asg12
g8
sba(iclasses.towerAI
Action
p2181
(dp2182
g3
g15
sg5
(lp2183
g1521
asg7
g53
sg9
(lp2184
(I17
I13
tp2185
asg12
g8
sba(iclasses.towerAI
Action
p2186
(dp2187
g3
g372
sg5
(lp2188
g1525
asg7
Nsg9
Nsg12
g8
sba(iclasses.towerAI
Action
p2189
(dp2190
g3
g15
sg5
(lp2191
g2185
asg7
g377
sg9
(lp2192
(I17
I12
tp2193
a(I18
I12
tp2194
a(I17
I13
tp2195
a(I18
I13
tp2196
asg12
g53
sba(iclasses.towerAI
Action
p2197
(dp2198
g3
g15
sg5
(lp2199
g1529
asg7
g17
sg9
(lp2200
(I17
I11
tp2201
asg12
g8
sba(iclasses.towerAI
Action
p2202
(dp2203
g3
g372
sg5
(lp2204
g1533
asg7
Nsg9
Nsg12
g8
sba(iclasses.towerAI
Action
p2205
(dp2206
g3
g15
sg5
(lp2207
g2201
asg7
g164
sg9
(lp2208
(I17
I10
tp2209
a(I18
I10
tp2210
a(I17
I11
tp2211
a(I18
I11
tp2212
asg12
g17
sba(iclasses.towerAI
Action
p2213
(dp2214
g3
g15
sg5
(lp2215
g2209
ag2210
ag2211
ag2212
asg7
g173
sg9
(lp2216
(I17
I10
tp2217
a(I18
I10
tp2218
a(I17
I11
tp2219
a(I18
I11
tp2220
asg12
g164
sba(iclasses.towerAI
Action
p2221
(dp2222
g3
g15
sg5
(lp2223
g1620
asg7
g53
sg9
(lp2224
(I17
I9
tp2225
asg12
g8
sba(iclasses.towerAI
Action
p2226
(dp2227
g3
g372
sg5
(lp2228
g1624
asg7
Nsg9
Nsg12
g8
sba(iclasses.towerAI
Action
p2229
(dp2230
g3
g15
sg5
(lp2231
g2225
asg7
g377
sg9
(lp2232
(I17
I8
tp2233
a(I18
I8
tp2234
a(I17
I9
tp2235
a(I18
I9
tp2236
asg12
g53
sba(iclasses.towerAI
Action
p2237
(dp2238
g3
g15
sg5
(lp2239
g1628
asg7
g17
sg9
(lp2240
(I17
I7
tp2241
asg12
g8
sba(iclasses.towerAI
Action
p2242
(dp2243
g3
g372
sg5
(lp2244
g1632
asg7
Nsg9
Nsg12
g8
sba(iclasses.towerAI
Action
p2245
(dp2246
g3
g15
sg5
(lp2247
g2241
asg7
g164
sg9
(lp2248
(I17
I6
tp2249
a(I18
I6
tp2250
a(I17
I7
tp2251
a(I18
I7
tp2252
asg12
g17
sba(iclasses.towerAI
Action
p2253
(dp2254
g3
g15
sg5
(lp2255
g2249
ag2250
ag2251
ag2252
asg7
g173
sg9
(lp2256
(I17
I6
tp2257
a(I18
I6
tp2258
a(I17
I7
tp2259
a(I18
I7
tp2260
asg12
g164
sba(iclasses.towerAI
Action
p2261
(dp2262
g3
g15
sg5
(lp2263
g1636
asg7
g53
sg9
(lp2264
(I17
I5
tp2265
asg12
g8
sba(iclasses.towerAI
Action
p2266
(dp2267
g3
g372
sg5
(lp2268
g1640
asg7
Nsg9
Nsg12
g8
sba(iclasses.towerAI
Action
p2269
(dp2270
g3
g15
sg5
(lp2271
g2265
asg7
g377
sg9
(lp2272
(I17
I4
tp2273
a(I18
I4
tp2274
a(I17
I5
tp2275
a(I18
I5
tp2276
asg12
g53
sba(iclasses.towerAI
Action
p2277
(dp2278
g3
g372
sg5
(lp2279
g118
asg7
Nsg9
Nsg12
g53
sba(iclasses.towerAI
Action
p2280
(dp2281
g3
g372
sg5
(lp2282
g91
asg7
Nsg9
Nsg12
g53
sba(iclasses.towerAI
Action
p2283
(dp2284
g3
g15
sg5
(lp2285
g1644
asg7
g53
sg9
(lp2286
(I17
I2
tp2287
asg12
g8
sba(iclasses.towerAI
Action
p2288
(dp2289
g3
g4
sg5
g6
sg7
g8
sg9
(lp2290
(I17
I1
tp2291
asg12
Nsba(iclasses.towerAI
Action
p2292
(dp2293
g3
g4
sg5
g6
sg7
g8
sg9
(lp2294
(I18
I1
tp2295
asg12
Nsba(iclasses.towerAI
Action
p2296
(dp2297
g3
g15
sg5
(lp2298
g1733
asg7
g158
sg9
(lp2299
(I15
I9
tp2300
asg12
g53
sba(iclasses.towerAI
Action
p2301
(dp2302
g3
g15
sg5
(lp2303
g1738
asg7
g158
sg9
(lp2304
(I15
I10
tp2305
asg12
g53
sba(iclasses.towerAI
Action
p2306
(dp2307
g3
g15
sg5
(lp2308
g1778
asg7
g158
sg9
(lp2309
(I15
I11
tp2310
asg12
g53
sba(iclasses.towerAI
Action
p2311
(dp2312
g3
g15
sg5
(lp2313
g1783
asg7
g158
sg9
(lp2314
(I15
I12
tp2315
asg12
g53
sba(iclasses.towerAI
Action
p2316
(dp2317
g3
g15
sg5
(lp2318
g1788
asg7
g158
sg9
(lp2319
(I15
I13
tp2320
asg12
g53
sba(iclasses.towerAI
Action
p2321
(dp2322
g3
g15
sg5
(lp2323
g1857
asg7
g158
sg9
(lp2324
(I15
I14
tp2325
asg12
g53
sba(iclasses.towerAI
Action
p2326
(dp2327
g3
g15
sg5
(lp2328
g1862
asg7
g158
sg9
(lp2329
(I15
I15
tp2330
asg12
g53
sba(iclasses.towerAI
Action
p2331
(dp2332
g3
g372
sg5
(lp2333
g2291
asg7
Nsg9
Nsg12
g8
sba(iclasses.towerAI
Action
p2334
(dp2335
g3
g372
sg5
(lp2336
g2295
asg7
Nsg9
Nsg12
g8
sba(iclasses.towerAI
Action
p2337
(dp2338
g3
g15
sg5
(lp2339
g2287
asg7
g377
sg9
(lp2340
(I17
I1
tp2341
a(I18
I1
tp2342
a(I17
I2
tp2343
a(I18
I2
tp2344
asg12
g53
sba(iclasses.towerAI
Action
p2345
(dp2346
g3
g15
sg5
(lp2347
g1648
asg7
g53
sg9
(lp2348
(I17
I3
tp2349
asg12
g8
sba(iclasses.towerAI
Action
p2350
(dp2351
g3
g4
sg5
g6
sg7
g8
sg9
(lp2352
(I18
I3
tp2353
asg12
Nsba(iclasses.towerAI
Action
p2354
(dp2355
g3
g15
sg5
(lp2356
g2353
asg7
g53
sg9
(lp2357
(I18
I3
tp2358
asg12
g8
sba(iclasses.towerAI
Action
p2359
(dp2360
g3
g15
sg5
(lp2361
g2349
asg7
g839
sg9
(lp2362
(I17
I3
tp2363
asg12
g53
sba(iclasses.towerAI
Action
p2364
(dp2365
g3
g15
sg5
(lp2366
g2358
asg7
g839
sg9
(lp2367
(I18
I3
tp2368
asg12
g53
sba(iclasses.towerAI
Action
p2369
(dp2370
g3
g372
sg5
(lp2371
g1963
ag1964
ag1965
ag1966
asg7
Nsg9
Nsg12
g23
sba(iclasses.towerAI
Action
p2372
(dp2373
g3
g372
sg5
(lp2374
g2273
ag2274
ag2275
ag2276
asg7
Nsg9
Nsg12
g377
sba(iclasses.towerAI
Action
p2375
(dp2376
g3
g4
sg5
g6
sg7
g8
sg9
(lp2377
(I21
I0
tp2378
asg12
Nsba(iclasses.towerAI
Action
p2379
(dp2380
g3
g4
sg5
g6
sg7
g8
sg9
(lp2381
(I17
I4
tp2382
asg12
Nsba(iclasses.towerAI
Action
p2383
(dp2384
g3
g15
sg5
(lp2385
g2382
asg7
g17
sg9
(lp2386
(I17
I4
tp2387
asg12
g8
sba(iclasses.towerAI
Action
p2388
(dp2389
g3
g15
sg5
(lp2390
g2387
asg7
g23
sg9
(lp2391
(I17
I4
tp2392
a(I18
I4
tp2393
a(I17
I5
tp2394
a(I18
I5
tp2395
asg12
g17
sba(iclasses.towerAI
Action
p2396
(dp2397
g3
g4
sg5
g6
sg7
g8
sg9
(lp2398
(I19
I1
tp2399
asg12
Nsba(iclasses.towerAI
Action
p2400
(dp2401
g3
g4
sg5
g6
sg7
g8
sg9
(lp2402
(I19
I2
tp2403
asg12
Nsba(iclasses.towerAI
Action
p2404
(dp2405
g3
g4
sg5
g6
sg7
g8
sg9
(lp2406
(I19
I3
tp2407
asg12
Nsba(iclasses.towerAI
Action
p2408
(dp2409
g3
g4
sg5
g6
sg7
g8
sg9
(lp2410
(I19
I4
tp2411
asg12
Nsba(iclasses.towerAI
Action
p2412
(dp2413
g3
g4
sg5
g6
sg7
g8
sg9
(lp2414
(I19
I5
tp2415
asg12
Nsba(iclasses.towerAI
Action
p2416
(dp2417
g3
g4
sg5
g6
sg7
g8
sg9
(lp2418
(I19
I6
tp2419
asg12
Nsba(iclasses.towerAI
Action
p2420
(dp2421
g3
g4
sg5
g6
sg7
g8
sg9
(lp2422
(I19
I7
tp2423
asg12
Nsba(iclasses.towerAI
Action
p2424
(dp2425
g3
g4
sg5
g6
sg7
g8
sg9
(lp2426
(I19
I8
tp2427
asg12
Nsba(iclasses.towerAI
Action
p2428
(dp2429
g3
g4
sg5
g6
sg7
g8
sg9
(lp2430
(I19
I9
tp2431
asg12
Nsba(iclasses.towerAI
Action
p2432
(dp2433
g3
g4
sg5
g6
sg7
g8
sg9
(lp2434
(I19
I10
tp2435
asg12
Nsba(iclasses.towerAI
Action
p2436
(dp2437
g3
g4
sg5
g6
sg7
g8
sg9
(lp2438
(I19
I11
tp2439
asg12
Nsba(iclasses.towerAI
Action
p2440
(dp2441
g3
g4
sg5
g6
sg7
g8
sg9
(lp2442
(I19
I12
tp2443
asg12
Nsba(iclasses.towerAI
Action
p2444
(dp2445
g3
g4
sg5
g6
sg7
g8
sg9
(lp2446
(I19
I13
tp2447
asg12
Nsba(iclasses.towerAI
Action
p2448
(dp2449
g3
g4
sg5
g6
sg7
g8
sg9
(lp2450
(I19
I14
tp2451
asg12
Nsba(iclasses.towerAI
Action
p2452
(dp2453
g3
g4
sg5
g6
sg7
g8
sg9
(lp2454
(I19
I15
tp2455
asg12
Nsba(iclasses.towerAI
Action
p2456
(dp2457
g3
g4
sg5
g6
sg7
g8
sg9
(lp2458
(I19
I16
tp2459
asg12
Nsba(iclasses.towerAI
Action
p2460
(dp2461
g3
g4
sg5
g6
sg7
g8
sg9
(lp2462
(I19
I17
tp2463
asg12
Nsba(iclasses.towerAI
Action
p2464
(dp2465
g3
g15
sg5
(lp2466
g1867
asg7
g158
sg9
(lp2467
(I15
I16
tp2468
asg12
g53
sba(iclasses.towerAI
Action
p2469
(dp2470
g3
g372
sg5
(lp2471
g2368
asg7
Nsg9
Nsg12
g839
sba(iclasses.towerAI
Action
p2472
(dp2473
g3
g372
sg5
(lp2474
g2363
asg7
Nsg9
Nsg12
g839
sba(iclasses.towerAI
Action
p2475
(dp2476
g3
g372
sg5
(lp2477
g2341
ag2342
ag2343
ag2344
asg7
Nsg9
Nsg12
g377
sba(iclasses.towerAI
Action
p2478
(dp2479
g3
g4
sg5
g6
sg7
g8
sg9
(lp2480
(I17
I3
tp2481
asg12
Nsba(iclasses.towerAI
Action
p2482
(dp2483
g3
g15
sg5
(lp2484
g2481
asg7
g53
sg9
(lp2485
(I17
I3
tp2486
asg12
g8
sba(iclasses.towerAI
Action
p2487
(dp2488
g3
g15
sg5
(lp2489
g2486
asg7
g377
sg9
(lp2490
(I17
I2
tp2491
a(I18
I2
tp2492
a(I17
I3
tp2493
a(I18
I3
tp2494
asg12
g53
sba(iclasses.towerAI
Action
p2495
(dp2496
g3
g4
sg5
g6
sg7
g8
sg9
(lp2497
(I17
I1
tp2498
asg12
Nsba(iclasses.towerAI
Action
p2499
(dp2500
g3
g4
sg5
g6
sg7
g8
sg9
(lp2501
(I18
I1
tp2502
asg12
Nsba(iclasses.towerAI
Action
p2503
(dp2504
g3
g15
sg5
(lp2505
g2498
asg7
g53
sg9
(lp2506
(I17
I1
tp2507
asg12
g8
sba(iclasses.towerAI
Action
p2508
(dp2509
g3
g15
sg5
(lp2510
g2507
asg7
g839
sg9
(lp2511
(I17
I1
tp2512
asg12
g53
sba(iclasses.towerAI
Action
p2513
(dp2514
g3
g15
sg5
(lp2515
g2502
asg7
g53
sg9
(lp2516
(I18
I1
tp2517
asg12
g8
sba(iclasses.towerAI
Action
p2518
(dp2519
g3
g15
sg5
(lp2520
g2517
asg7
g839
sg9
(lp2521
(I18
I1
tp2522
asg12
g53
sba(iclasses.towerAI
Action
p2523
(dp2524
g3
g15
sg5
(lp2525
g2378
asg7
g53
sg9
(lp2526
(I21
I0
tp2527
asg12
g8
sba(iclasses.towerAI
Action
p2528
(dp2529
g3
g15
sg5
(lp2530
g2399
asg7
g53
sg9
(lp2531
(I19
I1
tp2532
asg12
g8
sba(iclasses.towerAI
Action
p2533
(dp2534
g3
g15
sg5
(lp2535
g2532
asg7
g158
sg9
(lp2536
(I19
I1
tp2537
asg12
g53
sba(iclasses.towerAI
Action
p2538
(dp2539
g3
g15
sg5
(lp2540
g2403
asg7
g53
sg9
(lp2541
(I19
I2
tp2542
asg12
g8
sba(iclasses.towerAI
Action
p2543
(dp2544
g3
g15
sg5
(lp2545
g2407
asg7
g53
sg9
(lp2546
(I19
I3
tp2547
asg12
g8
sba(iclasses.towerAI
Action
p2548
(dp2549
g3
g15
sg5
(lp2550
g2411
asg7
g53
sg9
(lp2551
(I19
I4
tp2552
asg12
g8
sba(iclasses.towerAI
Action
p2553
(dp2554
g3
g15
sg5
(lp2555
g2415
asg7
g53
sg9
(lp2556
(I19
I5
tp2557
asg12
g8
sba(iclasses.towerAI
Action
p2558
(dp2559
g3
g15
sg5
(lp2560
g2419
asg7
g53
sg9
(lp2561
(I19
I6
tp2562
asg12
g8
sba(iclasses.towerAI
Action
p2563
(dp2564
g3
g15
sg5
(lp2565
g2423
asg7
g53
sg9
(lp2566
(I19
I7
tp2567
asg12
g8
sba(iclasses.towerAI
Action
p2568
(dp2569
g3
g15
sg5
(lp2570
g2427
asg7
g53
sg9
(lp2571
(I19
I8
tp2572
asg12
g8
sba(iclasses.towerAI
Action
p2573
(dp2574
g3
g15
sg5
(lp2575
g2542
asg7
g158
sg9
(lp2576
(I19
I2
tp2577
asg12
g53
sba(iclasses.towerAI
Action
p2578
(dp2579
g3
g15
sg5
(lp2580
g2431
asg7
g53
sg9
(lp2581
(I19
I9
tp2582
asg12
g8
sba(iclasses.towerAI
Action
p2583
(dp2584
g3
g15
sg5
(lp2585
g2435
asg7
g53
sg9
(lp2586
(I19
I10
tp2587
asg12
g8
sba(iclasses.towerAI
Action
p2588
(dp2589
g3
g15
sg5
(lp2590
g2439
asg7
g53
sg9
(lp2591
(I19
I11
tp2592
asg12
g8
sba(iclasses.towerAI
Action
p2593
(dp2594
g3
g15
sg5
(lp2595
g2443
asg7
g53
sg9
(lp2596
(I19
I12
tp2597
asg12
g8
sba(iclasses.towerAI
Action
p2598
(dp2599
g3
g15
sg5
(lp2600
g2447
asg7
g53
sg9
(lp2601
(I19
I13
tp2602
asg12
g8
sba(iclasses.towerAI
Action
p2603
(dp2604
g3
g15
sg5
(lp2605
g2451
asg7
g53
sg9
(lp2606
(I19
I14
tp2607
asg12
g8
sba(iclasses.towerAI
Action
p2608
(dp2609
g3
g15
sg5
(lp2610
g2455
asg7
g53
sg9
(lp2611
(I19
I15
tp2612
asg12
g8
sba(iclasses.towerAI
Action
p2613
(dp2614
g3
g15
sg5
(lp2615
g2459
asg7
g53
sg9
(lp2616
(I19
I16
tp2617
asg12
g8
sba(iclasses.towerAI
Action
p2618
(dp2619
g3
g15
sg5
(lp2620
g2463
asg7
g53
sg9
(lp2621
(I19
I17
tp2622
asg12
g8
sba(iclasses.towerAI
Action
p2623
(dp2624
g3
g15
sg5
(lp2625
g2547
asg7
g158
sg9
(lp2626
(I19
I3
tp2627
asg12
g53
sba(iclasses.towerAI
Action
p2628
(dp2629
g3
g15
sg5
(lp2630
g2552
asg7
g158
sg9
(lp2631
(I19
I4
tp2632
asg12
g53
sba(iclasses.towerAI
Action
p2633
(dp2634
g3
g15
sg5
(lp2635
g2557
asg7
g158
sg9
(lp2636
(I19
I5
tp2637
asg12
g53
sba(iclasses.towerAI
Action
p2638
(dp2639
g3
g15
sg5
(lp2640
g2562
asg7
g158
sg9
(lp2641
(I19
I6
tp2642
asg12
g53
sba(iclasses.towerAI
Action
p2643
(dp2644
g3
g15
sg5
(lp2645
g2567
asg7
g158
sg9
(lp2646
(I19
I7
tp2647
asg12
g53
sba(iclasses.towerAI
Action
p2648
(dp2649
g3
g15
sg5
(lp2650
g2572
asg7
g158
sg9
(lp2651
(I19
I8
tp2652
asg12
g53
sba(iclasses.towerAI
Action
p2653
(dp2654
g3
g15
sg5
(lp2655
g2582
asg7
g158
sg9
(lp2656
(I19
I9
tp2657
asg12
g53
sba(iclasses.towerAI
Action
p2658
(dp2659
g3
g15
sg5
(lp2660
g2587
asg7
g158
sg9
(lp2661
(I19
I10
tp2662
asg12
g53
sba(iclasses.towerAI
Action
p2663
(dp2664
g3
g15
sg5
(lp2665
g2592
asg7
g158
sg9
(lp2666
(I19
I11
tp2667
asg12
g53
sba(iclasses.towerAI
Action
p2668
(dp2669
g3
g15
sg5
(lp2670
g2597
asg7
g158
sg9
(lp2671
(I19
I12
tp2672
asg12
g53
sba(iclasses.towerAI
Action
p2673
(dp2674
g3
g15
sg5
(lp2675
g2602
asg7
g158
sg9
(lp2676
(I19
I13
tp2677
asg12
g53
sba(iclasses.towerAI
Action
p2678
(dp2679
g3
g15
sg5
(lp2680
g2607
asg7
g158
sg9
(lp2681
(I19
I14
tp2682
asg12
g53
sba(iclasses.towerAI
Action
p2683
(dp2684
g3
g15
sg5
(lp2685
g2612
asg7
g158
sg9
(lp2686
(I19
I15
tp2687
asg12
g53
sba(iclasses.towerAI
Action
p2688
(dp2689
g3
g15
sg5
(lp2690
g2617
asg7
g158
sg9
(lp2691
(I19
I16
tp2692
asg12
g53
sba(iclasses.towerAI
Action
p2693
(dp2694
g3
g15
sg5
(lp2695
g2622
asg7
g158
sg9
(lp2696
(I19
I17
tp2697
asg12
g53
sba(iclasses.towerAI
Action
p2698
(dp2699
g3
g15
sg5
(lp2700
g2527
asg7
g158
sg9
(lp2701
(I21
I0
tp2702
asg12
g53
sba(iclasses.towerAI
Action
p2703
(dp2704
g3
g15
sg5
(lp2705
g2026
asg7
g158
sg9
(lp2706
(I21
I1
tp2707
asg12
g53
sba(iclasses.towerAI
Action
p2708
(dp2709
g3
g15
sg5
(lp2710
g2031
asg7
g158
sg9
(lp2711
(I21
I2
tp2712
asg12
g53
sba(iclasses.towerAI
Action
p2713
(dp2714
g3
g15
sg5
(lp2715
g2036
asg7
g158
sg9
(lp2716
(I21
I3
tp2717
asg12
g53
sba(iclasses.towerAI
Action
p2718
(dp2719
g3
g15
sg5
(lp2720
g2041
asg7
g158
sg9
(lp2721
(I21
I4
tp2722
asg12
g53
sba(iclasses.towerAI
Action
p2723
(dp2724
g3
g15
sg5
(lp2725
g2090
asg7
g158
sg9
(lp2726
(I21
I5
tp2727
asg12
g53
sba(iclasses.towerAI
Action
p2728
(dp2729
g3
g15
sg5
(lp2730
g2095
asg7
g158
sg9
(lp2731
(I21
I6
tp2732
asg12
g53
sba(iclasses.towerAI
Action
p2733
(dp2734
g3
g15
sg5
(lp2735
g2100
asg7
g158
sg9
(lp2736
(I21
I7
tp2737
asg12
g53
sba(iclasses.towerAI
Action
p2738
(dp2739
g3
g15
sg5
(lp2740
g2105
asg7
g158
sg9
(lp2741
(I21
I8
tp2742
asg12
g53
sba(iclasses.towerAI
Action
p2743
(dp2744
g3
g15
sg5
(lp2745
g2110
asg7
g158
sg9
(lp2746
(I21
I9
tp2747
asg12
g53
sba(iclasses.towerAI
Action
p2748
(dp2749
g3
g15
sg5
(lp2750
g2115
asg7
g158
sg9
(lp2751
(I21
I10
tp2752
asg12
g53
sba(iclasses.towerAI
Action
p2753
(dp2754
g3
g15
sg5
(lp2755
g2155
asg7
g158
sg9
(lp2756
(I21
I11
tp2757
asg12
g53
sba(iclasses.towerAI
Action
p2758
(dp2759
g3
g15
sg5
(lp2760
g2160
asg7
g158
sg9
(lp2761
(I21
I12
tp2762
asg12
g53
sba(iclasses.towerAI
Action
p2763
(dp2764
g3
g15
sg5
(lp2765
g2165
asg7
g158
sg9
(lp2766
(I21
I13
tp2767
asg12
g53
sba(iclasses.towerAI
Action
p2768
(dp2769
g3
g15
sg5
(lp2770
g2170
asg7
g158
sg9
(lp2771
(I21
I14
tp2772
asg12
g53
sba(iclasses.towerAI
Action
p2773
(dp2774
g3
g15
sg5
(lp2775
g2175
asg7
g158
sg9
(lp2776
(I21
I15
tp2777
asg12
g53
sba(iclasses.towerAI
Action
p2778
(dp2779
g3
g15
sg5
(lp2780
g2180
asg7
g158
sg9
(lp2781
(I21
I16
tp2782
asg12
g53
sba.