(lp0
(iclasses.member
Member
p1
(dp2
S'fitness'
p3
I3
sS'value'
p4
(lp5
F0.2622783805891975
aF-0.2198294289342282
aF0.5544383745027162
aF0.7542647665717581
aF-0.5009568184443487
aF-0.9258383911986439
aF-0.7728727778757167
aF-0.9361346879485479
aF0.1378190371388215
aF-0.40722182104137516
aF0.2551076827736516
aF0.4160406988874257
aF0.9533411056083323
aF-0.39539618182866043
aF0.013678065692783514
aF-0.25108540257598233
aF0.41263716929107663
aF0.9111540773606033
aF-0.7780457802992637
aF0.33167692144011784
aF-0.144086023595545
aF-0.2003946376052339
aF-0.5667879107318401
aF-0.5412476201271903
aF-0.00534511281547978
aF0.18044144717499533
aF-0.9888560936200721
aF0.8604378446866281
aF0.3382147555941115
aF-0.8657210272267954
aF-0.7507522489136178
aF0.887598247742269
aF0.7714687948671748
aF-0.08812762560319909
aF0.12974825547067592
aF-0.15565075116693117
aF0.10373315436251196
aF-0.7808054540953346
aF-0.3597133724625725
aF0.9069447672258215
aF-0.01110814656806891
aF0.06378100191569325
aF-0.055455384583041
aF0.20403657130058317
aF-0.8155069490919706
aF-0.88207622319706
aF-0.33918443507044893
aF0.13788200080546553
aF-0.2856661249689607
aF-0.7488016428286988
aF0.06877598681216601
aF-0.7537069376668788
aF-0.29105854485157123
aF-0.706259685313454
aF0.49876747153471856
aF0.8730493312794398
aF0.30906289173647994
aF0.5720654164919592
aF0.0964469607605607
aF-0.8654938120311992
aF0.8479462979474508
aF-0.9831203053429678
aF0.15051907307284362
aF-0.0063043590690121665
aF-0.7441934381065607
aF0.5668759846830809
aF-0.45936772180547103
aF-0.5742067804769653
aF0.5495897659638365
aF-0.22100040263991683
aF0.3454861056514571
aF0.5013141173690594
aF0.03886979907299004
aF-0.8292056509116474
aF-0.36433637717188394
aF-0.9116456194048301
aF-0.7239471050210777
aF0.9862872924116588
aF0.009708640708778526
aF-0.14023980834973315
aF-0.5031846480939746
aF-0.993502235571053
aF0.5798365887152144
aF0.415070318270778
asS'wave'
p6
(lp7
F0.8740848710176492
aF0.6619516989163352
aF-0.7057790975255538
aF0.9321654200315843
aF-0.6228182677825176
aF0.41654578487991123
asba(iclasses.member
Member
p8
(dp9
g3
I3
sg4
(lp10
F0.2622783805891975
aF-0.2198294289342282
aF0.5544383745027162
aF0.7542647665717581
aF-0.5009568184443487
aF-0.9258383911986439
aF-0.7728727778757167
aF-0.9361346879485479
aF0.1378190371388215
aF-0.40722182104137516
aF0.2551076827736516
aF0.4160406988874257
aF0.9533411056083323
aF-0.39539618182866043
aF0.013678065692783514
aF-0.25108540257598233
aF0.41263716929107663
aF0.9111540773606033
aF-0.7780457802992637
aF0.33167692144011784
aF-0.144086023595545
aF-0.2003946376052339
aF-0.5667879107318401
aF-0.5412476201271903
aF-0.00534511281547978
aF0.18044144717499533
aF-0.9888560936200721
aF0.8604378446866281
aF0.3382147555941115
aF-0.8657210272267954
aF-0.7507522489136178
aF0.887598247742269
aF0.7714687948671748
aF-0.08812762560319909
aF0.12974825547067592
aF-0.15565075116693117
aF0.10373315436251196
aF-0.7808054540953346
aF-0.3597133724625725
aF0.9069447672258215
aF-0.01110814656806891
aF0.06378100191569325
aF-0.055455384583041
aF0.20403657130058317
aF-0.8155069490919706
aF-0.88207622319706
aF-0.33918443507044893
aF0.13788200080546553
aF-0.2856661249689607
aF-0.7488016428286988
aF0.06877598681216601
aF-0.7537069376668788
aF-0.29105854485157123
aF-0.706259685313454
aF0.49876747153471856
aF0.8730493312794398
aF0.30906289173647994
aF0.5720654164919592
aF0.0964469607605607
aF-0.8654938120311992
aF0.8479462979474508
aF-0.9831203053429678
aF0.15051907307284362
aF-0.0063043590690121665
aF-0.7441934381065607
aF0.5668759846830809
aF-0.45936772180547103
aF-0.5742067804769653
aF0.5495897659638365
aF-0.22100040263991683
aF0.3454861056514571
aF0.5013141173690594
aF0.03886979907299004
aF-0.8292056509116474
aF-0.36433637717188394
aF-0.9116456194048301
aF-0.7239471050210777
aF0.9862872924116588
aF0.009708640708778526
aF-0.14023980834973315
aF-0.5031846480939746
aF-0.993502235571053
aF0.5798365887152144
aF0.415070318270778
asg6
(lp11
F0.8740848710176492
aF0.6619516989163352
aF-0.7057790975255538
aF0.9321654200315843
aF-0.6228182677825176
aF0.41654578487991123
asba.