(lp0
(i__main__
Member
p1
(dp2
S'fitness'
p3
I100
sS'value'
p4
(lp5
F0.03897559438505449
aF0.3478583381242315
aF-0.897312137870063
aF-0.9324352069641058
aF-0.461226856129741
aF0.6801784756610663
aF0.7598125265107794
aF0.29700732644352246
aF0.8209041999241546
aF0.7242318190745309
aF-0.7067934612802174
aF0.9503868540444882
aF0.06098736797386839
aF0.7447188678731584
aF-0.34331646524181414
aF-0.5203362167792096
aF0.6805996743556919
aF0.361741226799734
aF0.04029451002225559
aF0.6056346908681713
aF0.6818456879294421
aF-0.7817315336799731
aF0.44018063599711965
aF0.0476422964788894
aF0.6922151287526437
aF0.25278563381411656
aF0.017852990837365024
aF0.6758547874562044
aF-0.6619189955451887
aF-0.22942085740267104
aF0.5212412649167812
aF-0.2551800057387916
aF-0.2978843995100835
aF-0.426298545338607
aF0.21980705270396061
aF0.15051837451916183
aF0.1279210591895219
aF0.23297334214363885
aF0.3353591579954518
aF-0.20091076414190856
aF-0.6052732787903892
aF0.7259550381151327
aF-0.7220407730814773
aF0.9612191022146017
aF0.6487388477196614
aF-0.6528476924799205
aF0.7230038298374144
aF0.2317316641789824
aF-0.40053792933434584
aF0.19199207094997095
aF0.4579624537294076
aF-0.12267927817184443
aF0.6981259543357194
aF-0.47998914390282277
aF0.43158998883532185
aF0.7876613025858121
aF-0.31596181239893073
aF0.28235864428019064
aF-0.6074992532890962
aF0.32958555766983455
aF-0.3737822028666318
aF-0.5597184768807444
aF-0.6846153359387017
aF-0.0793225337245167
aF-0.5594737432463992
aF0.32803644208871785
aF0.36773924489841714
aF0.5181314694789374
aF-0.6385717848170545
aF0.20931875671169098
aF0.8889514756129697
aF-0.8871637571819149
aF0.5695317952884322
aF0.8325461647600341
aF0.4585151740278388
aF0.2806313854417879
aF-0.5389542506165277
aF-0.14775460902131043
aF0.9057871187570175
aF0.636355626017403
aF0.11057947363666298
aF0.7807922513018191
aF0.17501468062624026
aF0.6760633651584003
asS'wave'
p6
(lp7
F-0.032198882655886996
aF-0.778976481096392
aF0.7506167345531525
aF-0.27783804254970557
aF-0.8088161467811319
aF-0.17276720826504577
asba(i__main__
Member
p8
(dp9
g3
I100
sg4
(lp10
F0.03897559438505449
aF0.3478583381242315
aF-0.897312137870063
aF-0.9324352069641058
aF-0.461226856129741
aF0.6801784756610663
aF0.7598125265107794
aF0.29700732644352246
aF0.8209041999241546
aF0.7242318190745309
aF-0.7067934612802174
aF0.9503868540444882
aF0.06098736797386839
aF0.7447188678731584
aF-0.34331646524181414
aF-0.5203362167792096
aF0.6805996743556919
aF0.361741226799734
aF0.04029451002225559
aF0.6056346908681713
aF0.6818456879294421
aF-0.7817315336799731
aF0.44018063599711965
aF0.0476422964788894
aF0.6922151287526437
aF0.25278563381411656
aF0.017852990837365024
aF0.6758547874562044
aF-0.6619189955451887
aF-0.22942085740267104
aF0.5212412649167812
aF-0.2551800057387916
aF-0.2978843995100835
aF-0.426298545338607
aF0.21980705270396061
aF0.15051837451916183
aF0.1279210591895219
aF0.23297334214363885
aF0.3353591579954518
aF-0.20091076414190856
aF-0.6052732787903892
aF0.7259550381151327
aF-0.7220407730814773
aF0.9612191022146017
aF0.6487388477196614
aF-0.6528476924799205
aF0.7230038298374144
aF0.2317316641789824
aF-0.40053792933434584
aF0.19199207094997095
aF0.4579624537294076
aF-0.12267927817184443
aF0.6981259543357194
aF-0.47998914390282277
aF0.43158998883532185
aF0.7876613025858121
aF-0.31596181239893073
aF0.28235864428019064
aF-0.6074992532890962
aF0.32958555766983455
aF-0.3737822028666318
aF-0.5597184768807444
aF-0.6846153359387017
aF-0.0793225337245167
aF-0.5594737432463992
aF0.32803644208871785
aF0.36773924489841714
aF0.5181314694789374
aF-0.6385717848170545
aF0.20931875671169098
aF0.8889514756129697
aF-0.8871637571819149
aF0.5695317952884322
aF0.8325461647600341
aF0.4585151740278388
aF0.2806313854417879
aF-0.5389542506165277
aF-0.14775460902131043
aF0.9057871187570175
aF0.636355626017403
aF0.11057947363666298
aF0.7807922513018191
aF0.17501468062624026
aF0.6760633651584003
asg6
(lp11
F-0.032198882655886996
aF-0.778976481096392
aF0.7506167345531525
aF-0.27783804254970557
aF-0.8088161467811319
aF-0.17276720826504577
asba.