(lp0
(iclasses.member
Member
p1
(dp2
S'fitness'
p3
I33
sS'value'
p4
(lp5
F0.7939745056790481
aF0.09953123842123812
aF-0.4400223876756979
aF-0.2240307140857094
aF0.752948508007548
aF-0.9190245674467021
aF-0.7746047607667836
aF-0.15765848351210798
aF-0.5215727426793129
aF-0.852052458075758
aF-0.6004180649592827
aF0.7587682915109955
aF0.6136885523794078
aF0.8038901881097866
aF-0.7269697143561997
aF-0.17059384055316418
aF-0.39899432793174894
aF0.8305405787642264
aF0.0713247603263405
aF0.5646515728625976
aF-0.15909232787358407
aF-0.9845808994575573
aF0.2967548347349125
aF0.8236044862421119
aF0.3950492661173701
aF-0.9566343538767337
aF-0.48452342220014555
aF0.39956867030261045
aF0.26721125285192726
aF-0.5925594376253873
aF0.08021945818972376
aF0.5023792234364401
aF-0.41326421530819624
aF0.16211491298662883
aF0.20712735255678671
aF-0.02837655872346012
aF-0.14549132586219904
aF0.19126365663497769
aF-0.38384389199934366
aF-0.0022050761652847584
aF0.22859553070411565
aF0.8934522368138322
aF0.6077705184019042
aF0.565533841353502
aF-0.154765998126829
aF0.20408489028498922
aF-0.5903070707147355
aF0.46436126037911696
aF-0.6129104291781144
aF-0.6322262754064316
aF0.7312047210283703
aF0.9076637657990927
aF0.2097290204242519
aF0.45426259650846945
aF0.2518943313277531
aF-0.2558023586261322
aF-0.537070249126955
aF0.05737202206124925
aF0.11535603082235024
aF0.25600295440947973
aF-0.1738131183718834
aF-0.6607849786124449
aF0.1004230714806984
aF-0.5765527087161257
aF0.8651650771885493
aF0.32470007751221375
aF0.641052945215878
aF0.7748659398309208
aF0.8409045034418019
aF0.7507363013486752
aF0.10673477893751859
aF-0.22653606624243516
aF0.9997458591805131
aF-0.9342199174076637
aF0.28837471663194436
aF0.8592719635692043
aF0.16748048318795306
aF0.38569352099022813
aF0.7301169756102588
aF-0.06284141953364086
aF0.39920800054663763
aF0.13829809514657576
aF0.13998784969788924
aF-0.6161484273156792
asS'wave'
p6
(lp7
F0.2339365391612327
aF0.7869047932019693
aF0.09109568644418276
aF-0.7367977888905208
aF-0.562744621507923
aF0.04565136299363837
asba(iclasses.member
Member
p8
(dp9
g3
I33
sg4
(lp10
F0.7939745056790481
aF0.09953123842123812
aF-0.4400223876756979
aF-0.2240307140857094
aF0.752948508007548
aF-0.9190245674467021
aF-0.7746047607667836
aF-0.15765848351210798
aF-0.5215727426793129
aF-0.852052458075758
aF-0.6004180649592827
aF0.7587682915109955
aF0.6136885523794078
aF0.8038901881097866
aF-0.7269697143561997
aF-0.17059384055316418
aF-0.39899432793174894
aF0.8305405787642264
aF0.0713247603263405
aF0.5646515728625976
aF-0.15909232787358407
aF-0.9845808994575573
aF0.2967548347349125
aF0.8236044862421119
aF0.3950492661173701
aF-0.9566343538767337
aF-0.48452342220014555
aF0.39956867030261045
aF0.26721125285192726
aF-0.5925594376253873
aF0.08021945818972376
aF0.5023792234364401
aF-0.41326421530819624
aF0.16211491298662883
aF0.20712735255678671
aF-0.02837655872346012
aF-0.14549132586219904
aF0.19126365663497769
aF-0.38384389199934366
aF-0.0022050761652847584
aF0.22859553070411565
aF0.8934522368138322
aF0.6077705184019042
aF0.565533841353502
aF-0.154765998126829
aF0.20408489028498922
aF-0.5903070707147355
aF0.46436126037911696
aF-0.6129104291781144
aF-0.6322262754064316
aF0.7312047210283703
aF0.9076637657990927
aF0.2097290204242519
aF0.45426259650846945
aF0.2518943313277531
aF-0.2558023586261322
aF-0.537070249126955
aF0.05737202206124925
aF0.11535603082235024
aF0.25600295440947973
aF-0.1738131183718834
aF-0.6607849786124449
aF0.1004230714806984
aF-0.5765527087161257
aF0.8651650771885493
aF0.32470007751221375
aF0.641052945215878
aF0.7748659398309208
aF0.8409045034418019
aF0.7507363013486752
aF0.10673477893751859
aF-0.22653606624243516
aF0.9997458591805131
aF-0.9342199174076637
aF0.28837471663194436
aF0.8592719635692043
aF0.16748048318795306
aF0.38569352099022813
aF0.7301169756102588
aF-0.06284141953364086
aF0.39920800054663763
aF0.13829809514657576
aF0.13998784969788924
aF-0.6161484273156792
asg6
(lp11
F0.2339365391612327
aF0.7869047932019693
aF0.09109568644418276
aF-0.7367977888905208
aF-0.562744621507923
aF0.04565136299363837
asba.