(lp0
(iclasses.member
Member
p1
(dp2
S'fitness'
p3
I9
sS'value'
p4
(lp5
F-0.7042006067872468
aF0.38844747250939693
aF-0.9314942842335723
aF0.15053914290766768
aF0.3777707217917965
aF0.44630721782846083
aF-0.2984171826704597
aF-0.8186053380847986
aF0.9372053448790938
aF0.7572789089429277
aF-0.7219569822180156
aF-0.2651043454492328
aF0.7158023367746853
aF0.4257238494016058
aF0.9271426014515755
aF-0.3844678041929152
aF-0.45950146320325147
aF-0.42343831599795784
aF0.8105358173256757
aF0.9231090235847226
aF0.23673949169680852
aF0.5499898487945365
aF-0.041910771133909064
aF0.16608535323358314
aF0.4075944030328722
aF0.8797776155850128
aF0.6313329630419956
aF0.5267955210499726
aF0.06839942925131666
aF-0.7852604697202628
aF0.8666675078885164
aF0.05638172927135798
aF0.7307753667650494
aF0.07451866594207845
aF0.6477239471702492
aF0.6551940833645997
aF0.43371827159191056
aF-0.28037582246146364
aF0.6334430488186811
aF0.2715775033105048
aF1.0098187810299555
aF-0.7795544337344837
aF0.2773001134192368
aF-0.163966779832098
aF-1.0424329381231559
aF-0.7829216499712053
aF0.023212577296430226
aF-0.2989701748451328
aF0.9152245502184
aF0.09072884623869393
aF-0.39493181176007885
aF-0.9837758549325606
aF-0.5373530122569943
aF0.8845650606245077
aF0.7617770138449049
aF0.4723114621405452
aF0.7512341631826398
aF0.16314407811353093
aF-0.7513492501437029
aF0.5240020532686389
aF-0.8347237891256907
aF-0.15844966967820517
aF-0.48512065644140523
aF0.9066040502850929
aF0.8553879345701418
aF-0.6029481472810274
aF0.3098694757120104
aF0.4542151566494898
aF0.2145440556870497
aF0.06727105872705463
aF-0.8132626632224045
aF-0.4967186734789314
aF-0.5964494961272877
aF-0.6415766986582603
aF0.48605322528647865
aF-0.11704901258813916
aF0.24776390030573445
aF-0.131338142967654
aF-0.7193499921304478
aF-0.29006383004822006
aF0.4694897699686833
aF-0.8133478337466593
aF0.5645719586813409
aF-0.7417807478357443
asS'wave'
p6
(lp7
F-0.43904680811813157
aF-0.34061120066900186
aF0.7777954206294608
aF-0.43219696595847745
aF0.3523568914718351
aF-0.8470271817357029
asba(iclasses.member
Member
p8
(dp9
g3
I9
sg4
(lp10
F-0.7042006067872468
aF0.38844747250939693
aF-0.9314942842335723
aF0.15053914290766768
aF0.3777707217917965
aF0.44630721782846083
aF-0.374201523178711
aF-0.8186053380847986
aF0.9372053448790938
aF0.7572789089429277
aF-0.7219569822180156
aF-0.2651043454492328
aF0.7570223862573824
aF0.4257238494016058
aF0.8914357205491659
aF-0.3844678041929152
aF-0.45950146320325147
aF-0.42343831599795784
aF0.8105358173256757
aF0.9231090235847226
aF0.13814392649289142
aF0.5499898487945365
aF-0.041910771133909064
aF0.23337163255663662
aF0.4075944030328722
aF0.8797776155850128
aF0.6313329630419956
aF0.4710562173495976
aF0.08376926865740231
aF-0.7852604697202628
aF0.8666675078885164
aF0.05638172927135798
aF0.7307753667650494
aF0.07451866594207845
aF0.68148812187859
aF0.6551940833645997
aF0.44440859304748037
aF-0.28037582246146364
aF0.6334430488186811
aF0.27977439596560555
aF1.0098187810299555
aF-0.8230110260698809
aF0.22799511134046901
aF-0.163966779832098
aF-1.0424329381231559
aF-0.7829216499712053
aF0.023212577296430226
aF-0.2989701748451328
aF0.9877292257178374
aF0.09072884623869393
aF-0.39493181176007885
aF-0.9521045217311144
aF-0.5373530122569943
aF0.8845650606245077
aF0.6635993905967346
aF0.4723114621405452
aF0.8228467286259791
aF0.14010969288054897
aF-0.7513492501437029
aF0.5240020532686389
aF-0.8347237891256907
aF-0.15844966967820517
aF-0.48512065644140523
aF0.9066040502850929
aF0.8553879345701418
aF-0.5920478199089497
aF0.3098694757120104
aF0.4542151566494898
aF0.2145440556870497
aF0.06727105872705463
aF-0.8132626632224045
aF-0.4967186734789314
aF-0.5964494961272877
aF-0.6415766986582603
aF0.42479524062394525
aF-0.03289391177981632
aF0.24776390030573445
aF-0.12804082485875856
aF-0.7193499921304478
aF-0.3665433934136002
aF0.4694897699686833
aF-0.8133478337466593
aF0.5645719586813409
aF-0.7417807478357443
asg6
(lp11
F-0.43904680811813157
aF-0.34061120066900186
aF0.7777954206294608
aF-0.4878547280191539
aF0.31866537950538465
aF-0.8470271817357029
asba(iclasses.member
Member
p12
(dp13
g3
I9
sg4
(lp14
F-0.7042006067872468
aF0.36091973799697596
aF-0.9314942842335723
aF0.15053914290766768
aF0.3777707217917965
aF0.44630721782846083
aF-0.374201523178711
aF-0.8186053380847986
aF0.9372053448790938
aF0.7572789089429277
aF-0.7219569822180156
aF-0.2651043454492328
aF0.7570223862573824
aF0.4257238494016058
aF0.8914357205491659
aF-0.3546563877009674
aF-0.45950146320325147
aF-0.5034713203696919
aF0.90560781060091
aF0.9231090235847226
aF0.13814392649289142
aF0.5499898487945365
aF-0.041910771133909064
aF0.23337163255663662
aF0.4075944030328722
aF0.8797776155850128
aF0.6313329630419956
aF0.5267955210499726
aF0.08376926865740231
aF-0.7852604697202628
aF0.8666675078885164
aF0.05638172927135798
aF0.7307753667650494
aF0.07451866594207845
aF0.6477239471702492
aF0.6518777760331852
aF0.43371827159191056
aF-0.28037582246146364
aF0.6334430488186811
aF0.27977439596560555
aF1.0098187810299555
aF-0.7795544337344837
aF0.2773001134192368
aF-0.163966779832098
aF-1.0424329381231559
aF-0.7829216499712053
aF0.023212577296430226
aF-0.2989701748451328
aF0.9152245502184
aF0.09072884623869393
aF-0.39493181176007885
aF-0.9837758549325606
aF-0.5373530122569943
aF0.8845650606245077
aF0.6635993905967346
aF0.4723114621405452
aF0.8228467286259791
aF0.14010969288054897
aF-0.7513492501437029
aF0.5240020532686389
aF-0.7899433790568655
aF-0.15844966967820517
aF-0.48512065644140523
aF0.9066040502850929
aF0.8558321143700758
aF-0.6029481472810274
aF0.2601343593890708
aF0.4462880299000427
aF0.2145440556870497
aF0.06727105872705463
aF-0.8132626632224045
aF-0.4967186734789314
aF-0.5964494961272877
aF-0.6415766986582603
aF0.48605322528647865
aF-0.03289391177981632
aF0.24776390030573445
aF-0.12804082485875856
aF-0.7193499921304478
aF-0.3665433934136002
aF0.4694897699686833
aF-0.8133478337466593
aF0.5645719586813409
aF-0.7417807478357443
asg6
(lp15
F-0.43904680811813157
aF-0.34061120066900186
aF0.7777954206294608
aF-0.4878547280191539
aF0.3523568914718351
aF-0.8470271817357029
asba(iclasses.member
Member
p16
(dp17
g3
I9
sg4
(lp18
F-0.7042006067872468
aF0.36091973799697596
aF-0.9314942842335723
aF0.15053914290766768
aF0.3777707217917965
aF0.44630721782846083
aF-0.374201523178711
aF-0.8186053380847986
aF0.9372053448790938
aF0.7572789089429277
aF-0.7219569822180156
aF-0.18289727451904048
aF0.7158023367746853
aF0.4257238494016058
aF0.8914357205491659
aF-0.3546563877009674
aF-0.45950146320325147
aF-0.5034713203696919
aF0.90560781060091
aF0.9231090235847226
aF0.13814392649289142
aF0.5499898487945365
aF-0.041910771133909064
aF0.23337163255663662
aF0.4075944030328722
aF0.8797776155850128
aF0.5925044159289705
aF0.4710562173495976
aF0.08376926865740231
aF-0.7852604697202628
aF0.8666675078885164
aF0.05638172927135798
aF0.7307753667650494
aF0.07451866594207845
aF0.68148812187859
aF0.6551940833645997
aF0.44440859304748037
aF-0.28037582246146364
aF0.6334430488186811
aF0.2715775033105048
aF0.9784486968496358
aF-0.7795544337344837
aF0.22799511134046901
aF-0.12311608653503314
aF-0.9784401626303267
aF-0.7829216499712053
aF0.023212577296430226
aF-0.2989701748451328
aF0.9152245502184
aF0.09072884623869393
aF-0.39493181176007885
aF-0.9837758549325606
aF-0.5373530122569943
aF0.8845650606245077
aF0.6635993905967346
aF0.5669367789876458
aF0.8228467286259791
aF0.14010969288054897
aF-0.7513492501437029
aF0.5240020532686389
aF-0.7899433790568655
aF-0.15844966967820517
aF-0.48512065644140523
aF0.9066040502850929
aF0.8553879345701418
aF-0.6029481472810274
aF0.2601343593890708
aF0.4462880299000427
aF0.2145440556870497
aF-0.018339849193120594
aF-0.8132626632224045
aF-0.5753281141313733
aF-0.5964494961272877
aF-0.6415766986582603
aF0.48605322528647865
aF-0.11704901258813916
aF0.2934087956922975
aF-0.12804082485875856
aF-0.7193499921304478
aF-0.3665433934136002
aF0.4694897699686833
aF-0.8133478337466593
aF0.5645719586813409
aF-0.7417807478357443
asg6
(lp19
F-0.43904680811813157
aF-0.34061120066900186
aF0.7777954206294608
aF-0.43219696595847745
aF0.31866537950538465
aF-0.8470271817357029
asba(iclasses.member
Member
p20
(dp21
g3
I7
sg4
(lp22
F-0.7042006067872468
aF0.36091973799697596
aF-0.9314942842335723
aF0.15053914290766768
aF0.3777707217917965
aF0.44630721782846083
aF-0.374201523178711
aF-0.8186053380847986
aF0.9372053448790938
aF0.7572789089429277
aF-0.7219569822180156
aF-0.18289727451904048
aF0.7158023367746853
aF0.4257238494016058
aF0.8914357205491659
aF-0.3546563877009674
aF-0.45950146320325147
aF-0.5034713203696919
aF0.90560781060091
aF0.9231090235847226
aF0.13814392649289142
aF0.5499898487945365
aF-0.041910771133909064
aF0.23337163255663662
aF0.4075944030328722
aF0.8797776155850128
aF0.5925044159289705
aF0.4710562173495976
aF0.08376926865740231
aF-0.7852604697202628
aF0.8666675078885164
aF0.05638172927135798
aF0.7307753667650494
aF0.07451866594207845
aF0.68148812187859
aF0.6551940833645997
aF0.44440859304748037
aF-0.28037582246146364
aF0.6334430488186811
aF0.2715775033105048
aF0.9784486968496358
aF-0.7795544337344837
aF0.22799511134046901
aF-0.12311608653503314
aF-0.9784401626303267
aF-0.7829216499712053
aF0.023212577296430226
aF-0.2989701748451328
aF0.9152245502184
aF0.09072884623869393
aF-0.39493181176007885
aF-0.9837758549325606
aF-0.5373530122569943
aF0.8845650606245077
aF0.6635993905967346
aF0.5669367789876458
aF0.8228467286259791
aF0.14010969288054897
aF-0.7513492501437029
aF0.5240020532686389
aF-0.7899433790568655
aF-0.15844966967820517
aF-0.48512065644140523
aF0.9066040502850929
aF0.8553879345701418
aF-0.6029481472810274
aF0.2601343593890708
aF0.4462880299000427
aF0.2145440556870497
aF-0.018339849193120594
aF-0.8132626632224045
aF-0.5753281141313733
aF-0.5964494961272877
aF-0.6415766986582603
aF0.48605322528647865
aF-0.11704901258813916
aF0.2934087956922975
aF-0.12804082485875856
aF-0.7193499921304478
aF-0.3665433934136002
aF0.4694897699686833
aF-0.8133478337466593
aF0.5645719586813409
aF-0.7417807478357443
asg6
(lp23
F-0.43904680811813157
aF-0.34061120066900186
aF0.7777954206294608
aF-0.43219696595847745
aF0.31866537950538465
aF-0.8470271817357029
asba(iclasses.member
Member
p24
(dp25
g3
I7
sg4
(lp26
F-0.7042006067872468
aF0.36091973799697596
aF-0.9314942842335723
aF0.15053914290766768
aF0.3777707217917965
aF0.44630721782846083
aF-0.2984171826704597
aF-0.8186053380847986
aF0.9372053448790938
aF0.7572789089429277
aF-0.7219569822180156
aF-0.18289727451904048
aF0.7570223862573824
aF0.4257238494016058
aF0.9271426014515755
aF-0.3546563877009674
aF-0.45950146320325147
aF-0.42343831599795784
aF0.90560781060091
aF0.9231090235847226
aF0.23673949169680852
aF0.5447474798909528
aF-0.04852939867539259
aF0.23337163255663662
aF0.4075944030328722
aF0.8797776155850128
aF0.5925044159289705
aF0.4710562173495976
aF0.08376926865740231
aF-0.7852604697202628
aF0.8666675078885164
aF0.05638172927135798
aF0.7307753667650494
aF0.07451866594207845
aF0.6477239471702492
aF0.6518777760331852
aF0.44440859304748037
aF-0.28037582246146364
aF0.6334430488186811
aF0.27977439596560555
aF1.0098187810299555
aF-0.7795544337344837
aF0.22799511134046901
aF-0.163966779832098
aF-0.9784401626303267
aF-0.7829216499712053
aF0.023212577296430226
aF-0.2989701748451328
aF0.9877292257178374
aF0.09072884623869393
aF-0.39493181176007885
aF-0.9837758549325606
aF-0.5373530122569943
aF0.8845650606245077
aF0.7617770138449049
aF0.5669367789876458
aF0.7512341631826398
aF0.16314407811353093
aF-0.7513492501437029
aF0.5240020532686389
aF-0.7899433790568655
aF-0.15844966967820517
aF-0.5707293155068733
aF0.9286704713258348
aF0.8558321143700758
aF-0.6029481472810274
aF0.3098694757120104
aF0.4542151566494898
aF0.2145440556870497
aF0.06727105872705463
aF-0.8132626632224045
aF-0.5753281141313733
aF-0.5964494961272877
aF-0.6415766986582603
aF0.48605322528647865
aF-0.03289391177981632
aF0.24776390030573445
aF-0.12804082485875856
aF-0.7193499921304478
aF-0.3665433934136002
aF0.4694897699686833
aF-0.8133478337466593
aF0.5645719586813409
aF-0.7417807478357443
asg6
(lp27
F-0.43904680811813157
aF-0.34061120066900186
aF0.7777954206294608
aF-0.4878547280191539
aF0.3523568914718351
aF-0.8470271817357029
asba(iclasses.member
Member
p28
(dp29
g3
I7
sg4
(lp30
F-0.7042006067872468
aF0.38844747250939693
aF-0.9314942842335723
aF0.15053914290766768
aF0.3777707217917965
aF0.44630721782846083
aF-0.374201523178711
aF-0.8186053380847986
aF0.9372053448790938
aF0.7572789089429277
aF-0.7219569822180156
aF-0.18289727451904048
aF0.7570223862573824
aF0.4257238494016058
aF0.9271426014515755
aF-0.3844678041929152
aF-0.45950146320325147
aF-0.42343831599795784
aF0.90560781060091
aF0.9231090235847226
aF0.13814392649289142
aF0.5499898487945365
aF-0.04852939867539259
aF0.16608535323358314
aF0.4075944030328722
aF0.8797776155850128
aF0.5925044159289705
aF0.5267955210499726
aF0.06839942925131666
aF-0.7852604697202628
aF0.8666675078885164
aF0.05638172927135798
aF0.7307753667650494
aF0.07451866594207845
aF0.68148812187859
aF0.6551940833645997
aF0.43371827159191056
aF-0.28037582246146364
aF0.6334430488186811
aF0.27977439596560555
aF1.0098187810299555
aF-0.7795544337344837
aF0.2773001134192368
aF-0.163966779832098
aF-0.9784401626303267
aF-0.7829216499712053
aF0.023212577296430226
aF-0.2989701748451328
aF0.9152245502184
aF0.09072884623869393
aF-0.39493181176007885
aF-0.9521045217311144
aF-0.5373530122569943
aF0.8845650606245077
aF0.7617770138449049
aF0.4723114621405452
aF0.8228467286259791
aF0.16314407811353093
aF-0.7513492501437029
aF0.5240020532686389
aF-0.8347237891256907
aF-0.15844966967820517
aF-0.5707293155068733
aF0.9286704713258348
aF0.8558321143700758
aF-0.5920478199089497
aF0.3098694757120104
aF0.4542151566494898
aF0.2145440556870497
aF0.06727105872705463
aF-0.8132626632224045
aF-0.4967186734789314
aF-0.5964494961272877
aF-0.6415766986582603
aF0.48605322528647865
aF-0.03289391177981632
aF0.2934087956922975
aF-0.131338142967654
aF-0.7193499921304478
aF-0.29006383004822006
aF0.4694897699686833
aF-0.8133478337466593
aF0.5645719586813409
aF-0.7417807478357443
asg6
(lp31
F-0.43904680811813157
aF-0.34061120066900186
aF0.7777954206294608
aF-0.43219696595847745
aF0.31866537950538465
aF-0.8470271817357029
asba(iclasses.member
Member
p32
(dp33
g3
I7
sg4
(lp34
F-0.7042006067872468
aF0.36091973799697596
aF-0.9314942842335723
aF0.15053914290766768
aF0.3777707217917965
aF0.44630721782846083
aF-0.374201523178711
aF-0.8186053380847986
aF0.9372053448790938
aF0.7572789089429277
aF-0.7219569822180156
aF-0.18289727451904048
aF0.7158023367746853
aF0.4257238494016058
aF0.8914357205491659
aF-0.3546563877009674
aF-0.45950146320325147
aF-0.5034713203696919
aF0.90560781060091
aF0.9231090235847226
aF0.13814392649289142
aF0.5499898487945365
aF-0.041910771133909064
aF0.23337163255663662
aF0.4075944030328722
aF0.8797776155850128
aF0.5925044159289705
aF0.4710562173495976
aF0.08376926865740231
aF-0.7852604697202628
aF0.8666675078885164
aF0.05638172927135798
aF0.7307753667650494
aF0.07451866594207845
aF0.68148812187859
aF0.6551940833645997
aF0.44440859304748037
aF-0.28037582246146364
aF0.6334430488186811
aF0.2715775033105048
aF0.9784486968496358
aF-0.7795544337344837
aF0.22799511134046901
aF-0.12311608653503314
aF-0.9784401626303267
aF-0.7829216499712053
aF0.023212577296430226
aF-0.2989701748451328
aF0.9152245502184
aF0.09072884623869393
aF-0.39493181176007885
aF-0.9837758549325606
aF-0.5373530122569943
aF0.8845650606245077
aF0.6635993905967346
aF0.5669367789876458
aF0.8228467286259791
aF0.14010969288054897
aF-0.7513492501437029
aF0.5240020532686389
aF-0.7899433790568655
aF-0.15844966967820517
aF-0.48512065644140523
aF0.9066040502850929
aF0.8553879345701418
aF-0.6029481472810274
aF0.2601343593890708
aF0.4462880299000427
aF0.2145440556870497
aF-0.018339849193120594
aF-0.8132626632224045
aF-0.5753281141313733
aF-0.5964494961272877
aF-0.6415766986582603
aF0.48605322528647865
aF-0.11704901258813916
aF0.2934087956922975
aF-0.12804082485875856
aF-0.7193499921304478
aF-0.3665433934136002
aF0.4694897699686833
aF-0.8133478337466593
aF0.5645719586813409
aF-0.7417807478357443
asg6
(lp35
F-0.43904680811813157
aF-0.34061120066900186
aF0.7777954206294608
aF-0.43219696595847745
aF0.31866537950538465
aF-0.8470271817357029
asba(iclasses.member
Member
p36
(dp37
g3
I7
sg4
(lp38
F-0.7042006067872468
aF0.38844747250939693
aF-0.9314942842335723
aF0.15053914290766768
aF0.3777707217917965
aF0.44630721782846083
aF-0.374201523178711
aF-0.8186053380847986
aF0.9372053448790938
aF0.7572789089429277
aF-0.7219569822180156
aF-0.2651043454492328
aF0.7158023367746853
aF0.4257238494016058
aF0.8914357205491659
aF-0.3546563877009674
aF-0.45950146320325147
aF-0.42343831599795784
aF0.90560781060091
aF0.9231090235847226
aF0.13814392649289142
aF0.5447474798909528
aF-0.04852939867539259
aF0.23337163255663662
aF0.4075944030328722
aF0.8797776155850128
aF0.5925044159289705
aF0.5267955210499726
aF0.08376926865740231
aF-0.7852604697202628
aF0.8666675078885164
aF0.05638172927135798
aF0.7307753667650494
aF0.07451866594207845
aF0.68148812187859
aF0.6551940833645997
aF0.43371827159191056
aF-0.28037582246146364
aF0.6334430488186811
aF0.27977439596560555
aF1.0098187810299555
aF-0.7795544337344837
aF0.2773001134192368
aF-0.163966779832098
aF-0.9784401626303267
aF-0.7829216499712053
aF0.023212577296430226
aF-0.2989701748451328
aF0.9877292257178374
aF0.09072884623869393
aF-0.39493181176007885
aF-0.9837758549325606
aF-0.5373530122569943
aF0.8845650606245077
aF0.7617770138449049
aF0.5669367789876458
aF0.8228467286259791
aF0.14010969288054897
aF-0.7513492501437029
aF0.5240020532686389
aF-0.7899433790568655
aF-0.15844966967820517
aF-0.48512065644140523
aF0.9286704713258348
aF0.8553879345701418
aF-0.6029481472810274
aF0.2601343593890708
aF0.4462880299000427
aF0.2145440556870497
aF0.06727105872705463
aF-0.8132626632224045
aF-0.5753281141313733
aF-0.5964494961272877
aF-0.6415766986582603
aF0.42479524062394525
aF-0.11704901258813916
aF0.24776390030573445
aF-0.12804082485875856
aF-0.7193499921304478
aF-0.3665433934136002
aF0.4694897699686833
aF-0.8133478337466593
aF0.5645719586813409
aF-0.7417807478357443
asg6
(lp39
F-0.43904680811813157
aF-0.34061120066900186
aF0.7777954206294608
aF-0.43219696595847745
aF0.31866537950538465
aF-0.8470271817357029
asba(iclasses.member
Member
p40
(dp41
g3
I7
sg4
(lp42
F-0.7042006067872468
aF0.36091973799697596
aF-0.9314942842335723
aF0.15053914290766768
aF0.3777707217917965
aF0.44630721782846083
aF-0.374201523178711
aF-0.8186053380847986
aF0.9372053448790938
aF0.7572789089429277
aF-0.7219569822180156
aF-0.2651043454492328
aF0.7158023367746853
aF0.4257238494016058
aF0.9271426014515755
aF-0.3844678041929152
aF-0.45950146320325147
aF-0.5034713203696919
aF0.8105358173256757
aF0.9231090235847226
aF0.23673949169680852
aF0.5499898487945365
aF-0.04852939867539259
aF0.16608535323358314
aF0.4075944030328722
aF0.8797776155850128
aF0.5925044159289705
aF0.5267955210499726
aF0.06839942925131666
aF-0.7852604697202628
aF0.8666675078885164
aF0.05638172927135798
aF0.7307753667650494
aF0.07451866594207845
aF0.68148812187859
aF0.6551940833645997
aF0.43371827159191056
aF-0.28037582246146364
aF0.6334430488186811
aF0.27977439596560555
aF0.9784486968496358
aF-0.7795544337344837
aF0.2773001134192368
aF-0.163966779832098
aF-1.0424329381231559
aF-0.7829216499712053
aF0.023212577296430226
aF-0.2989701748451328
aF0.9877292257178374
aF0.09072884623869393
aF-0.39493181176007885
aF-0.9837758549325606
aF-0.5373530122569943
aF0.8845650606245077
aF0.7617770138449049
aF0.5669367789876458
aF0.7512341631826398
aF0.16314407811353093
aF-0.7513492501437029
aF0.5240020532686389
aF-0.8347237891256907
aF-0.15844966967820517
aF-0.5707293155068733
aF0.9066040502850929
aF0.8558321143700758
aF-0.6029481472810274
aF0.2601343593890708
aF0.4542151566494898
aF0.2145440556870497
aF0.06727105872705463
aF-0.8132626632224045
aF-0.4967186734789314
aF-0.5964494961272877
aF-0.6415766986582603
aF0.48605322528647865
aF-0.11704901258813916
aF0.24776390030573445
aF-0.131338142967654
aF-0.7193499921304478
aF-0.3665433934136002
aF0.4694897699686833
aF-0.8133478337466593
aF0.5645719586813409
aF-0.7417807478357443
asg6
(lp43
F-0.43904680811813157
aF-0.34061120066900186
aF0.7777954206294608
aF-0.4878547280191539
aF0.3523568914718351
aF-0.8470271817357029
asba.