(lp0
(iclasses.member
Member
p1
(dp2
S'fitness'
p3
I100
sS'value'
p4
(lp5
F0.42135269022002086
aF0.21615018040425715
aF0.006577584816910731
aF0.7385853184220674
aF-0.36603342700503316
aF0.21719494464785782
aF-0.18754046629604204
aF-0.7739086203941916
aF0.08023101145480416
aF-0.14112070318391723
aF0.7615367116194438
aF0.9476149834384568
aF0.7624741084394058
aF-0.6461105308238946
aF0.8149766866466313
aF-0.7587358009263001
aF-0.05126769883441895
aF0.11655343172531207
aF-0.7369264766010579
aF-0.12704389469307098
aF0.4739900250750946
aF0.8517121800559582
aF0.17763592301874165
aF0.038917404091165064
aF0.6578294950933745
aF-0.25208979192367087
aF0.8480205245313135
aF-0.22403919217870238
aF-0.5495198995623567
aF-0.3176785656537202
aF0.22427796311469117
aF-0.1400153499251937
aF0.42541743339045635
aF-0.9069783089159513
aF0.11470193086924674
aF0.12590339402506934
aF0.44576064235109114
aF-0.24496638396038994
aF-0.0868397873819644
aF-0.09039840654788489
aF0.5580712019242644
aF-0.6386414851158744
aF-0.44881363233830984
aF0.279298168591789
aF-0.22458779217935132
aF0.2750624814767282
aF0.12411916575270898
aF-0.44509468606947733
aF-0.42256335447858717
aF-0.5600373574838913
aF-0.5066047374532585
aF-0.3519056759325021
aF-0.7632448336913951
aF-0.974294067881299
aF-0.2895267133484636
aF0.18014023674511592
aF0.020978212923489448
aF-0.735423883201272
aF-0.6312831920403916
aF0.043051037340132936
aF0.9452670804021663
aF-0.861927306165172
aF0.16075228287593668
aF-0.3318618820788384
aF-0.6822808165980341
aF-0.5960971276995888
aF-0.5573679322772562
aF-0.6471565877036869
aF0.377316711097335
aF0.14093021081601131
aF-0.4856536489076424
aF-0.6580250119340616
aF-0.2824048281416778
aF-0.2429448174720399
aF0.9534169857710266
aF0.01794498240405029
aF-0.7009071964277793
aF0.4961677895152372
aF-0.9597281986150024
aF-0.704542209428294
aF-0.9094564239168268
aF-0.9949168671712942
aF0.11286371108940774
aF-0.5830403926714165
asS'wave'
p6
(lp7
F0.6098569349226728
aF0.8317948463713314
aF0.6932023457649155
aF0.6557907332168409
aF0.40130033964066203
aF-0.9826436536044134
asba(iclasses.member
Member
p8
(dp9
g3
I100
sg4
(lp10
F0.42135269022002086
aF0.21615018040425715
aF0.006577584816910731
aF0.7385853184220674
aF-0.36603342700503316
aF0.21719494464785782
aF-0.18754046629604204
aF-0.7739086203941916
aF0.08023101145480416
aF-0.14112070318391723
aF0.7615367116194438
aF0.9476149834384568
aF0.7624741084394058
aF-0.6461105308238946
aF0.8149766866466313
aF-0.7587358009263001
aF-0.05126769883441895
aF0.11655343172531207
aF-0.7369264766010579
aF-0.12704389469307098
aF0.4739900250750946
aF0.8517121800559582
aF0.17763592301874165
aF0.038917404091165064
aF0.6578294950933745
aF-0.25208979192367087
aF0.8480205245313135
aF-0.22403919217870238
aF-0.5495198995623567
aF-0.3176785656537202
aF0.22427796311469117
aF-0.1400153499251937
aF0.42541743339045635
aF-0.9069783089159513
aF0.11470193086924674
aF0.12590339402506934
aF0.44576064235109114
aF-0.24496638396038994
aF-0.0868397873819644
aF-0.09039840654788489
aF0.5580712019242644
aF-0.6386414851158744
aF-0.44881363233830984
aF0.279298168591789
aF-0.22458779217935132
aF0.2750624814767282
aF0.12411916575270898
aF-0.44509468606947733
aF-0.42256335447858717
aF-0.5600373574838913
aF-0.5066047374532585
aF-0.3519056759325021
aF-0.7632448336913951
aF-0.974294067881299
aF-0.2895267133484636
aF0.18014023674511592
aF0.020978212923489448
aF-0.735423883201272
aF-0.6312831920403916
aF0.043051037340132936
aF0.9452670804021663
aF-0.861927306165172
aF0.16075228287593668
aF-0.3318618820788384
aF-0.6822808165980341
aF-0.5960971276995888
aF-0.5573679322772562
aF-0.6471565877036869
aF0.377316711097335
aF0.14093021081601131
aF-0.4856536489076424
aF-0.6580250119340616
aF-0.2824048281416778
aF-0.2429448174720399
aF0.9534169857710266
aF0.01794498240405029
aF-0.7009071964277793
aF0.4961677895152372
aF-0.9597281986150024
aF-0.704542209428294
aF-0.9094564239168268
aF-0.9949168671712942
aF0.11286371108940774
aF-0.5830403926714165
asg6
(lp11
F0.6098569349226728
aF0.8317948463713314
aF0.6932023457649155
aF0.6557907332168409
aF0.40130033964066203
aF-0.9826436536044134
asba.