(lp0
(iclasses.member
Member
p1
(dp2
S'fitness'
p3
I7
sS'value'
p4
(lp5
F-0.20863724627574465
aF0.0015343414558792734
aF0.0011402716173325445
aF-0.3405386179886969
aF-0.3721256538597921
aF-0.5439120068413807
aF-0.3312561927252904
aF0.7685564152154478
aF0.5903097156680264
aF-0.23400904458388538
aF-0.4031001147005815
aF0.34496571597388725
aF0.31693730764083305
aF-0.6338057657184952
aF-0.882423120841213
aF0.6343640304197404
aF0.1185914007369211
aF-0.4888157081708968
aF-0.5551563450258725
aF0.03597571277943756
aF0.975591873109475
aF0.2999939891111001
aF-0.7074586486464527
aF0.5889276223703916
aF0.2693889680436339
aF0.3749804023436041
aF0.9887226126929716
aF-0.27032586222542143
aF0.8257551524516407
aF0.7915817193366261
aF-0.6107351585200935
aF0.5134484396958312
aF0.08923461837755253
aF0.6051981810933604
aF0.16991477668389865
aF0.3888107183305727
aF-0.15199386145707705
aF0.3539476906182806
aF0.5205955409689771
aF-0.8288537802320584
aF-0.7697544461239374
aF-0.7174162547662148
aF0.1329840562915705
aF-0.28920765500142687
aF-0.8820243078682082
aF0.5793501533814445
aF0.23389584138978425
aF0.2232314660874548
aF0.3229672254498799
aF-0.21376149643414366
aF-0.769118675623041
aF-0.6240778038703418
aF0.9230408714566714
aF-0.6851933197159548
aF0.3845257224879268
aF-0.47404929053425504
aF-0.2054499910081744
aF-0.7108853351882485
aF-0.7545736176086586
aF-0.7212384127446716
aF-0.3896695798331986
aF0.039689634821587605
aF-0.40789891252105304
aF0.5993052997799411
aF0.5273710662058624
aF-0.5634644911201625
aF0.3508864611906657
aF0.6416539824224226
aF0.2710942956869322
aF0.23943534355102813
aF-0.02126296242281578
aF-0.9184418333608639
aF-0.7242203569267363
aF0.6213354707812269
aF0.47450138605684944
aF-0.8993598807418202
aF-0.6056036071426576
aF0.3493169768944977
aF0.16467368476590227
aF-0.6579876033995813
aF0.9647284454775287
aF0.6651071269016111
aF-0.07410462767425008
aF-0.49101495353175784
asS'wave'
p6
(lp7
F-0.946918892083999
aF0.2594059876778716
aF0.63394282007845
aF-0.08034768018535576
aF0.14132762065766813
aF0.3282187700349237
asba(iclasses.member
Member
p8
(dp9
g3
I7
sg4
(lp10
F-0.20863724627574465
aF0.0015343414558792734
aF0.0011402716173325445
aF-0.3405386179886969
aF-0.3721256538597921
aF-0.5439120068413807
aF-0.3312561927252904
aF0.7685564152154478
aF0.5903097156680264
aF-0.23400904458388538
aF-0.4031001147005815
aF0.34496571597388725
aF0.31693730764083305
aF-0.6338057657184952
aF-0.882423120841213
aF0.6343640304197404
aF0.1185914007369211
aF-0.4888157081708968
aF-0.5551563450258725
aF0.03597571277943756
aF0.975591873109475
aF0.2999939891111001
aF-0.7074586486464527
aF0.5889276223703916
aF0.2693889680436339
aF0.3749804023436041
aF0.9887226126929716
aF-0.27032586222542143
aF0.8257551524516407
aF0.7915817193366261
aF-0.6107351585200935
aF0.5134484396958312
aF0.08923461837755253
aF0.6051981810933604
aF0.16991477668389865
aF0.3888107183305727
aF-0.15199386145707705
aF0.3539476906182806
aF0.5205955409689771
aF-0.8288537802320584
aF-0.7697544461239374
aF-0.7174162547662148
aF0.1329840562915705
aF-0.28920765500142687
aF-0.8820243078682082
aF0.5793501533814445
aF0.23389584138978425
aF0.2232314660874548
aF0.3229672254498799
aF-0.21376149643414366
aF-0.769118675623041
aF-0.6240778038703418
aF0.9230408714566714
aF-0.6851933197159548
aF0.3845257224879268
aF-0.47404929053425504
aF-0.2054499910081744
aF-0.7108853351882485
aF-0.7545736176086586
aF-0.7212384127446716
aF-0.3896695798331986
aF0.039689634821587605
aF-0.40789891252105304
aF0.5993052997799411
aF0.5273710662058624
aF-0.5634644911201625
aF0.3508864611906657
aF0.6416539824224226
aF0.2710942956869322
aF0.23943534355102813
aF-0.02126296242281578
aF-0.9184418333608639
aF-0.7242203569267363
aF0.6213354707812269
aF0.47450138605684944
aF-0.8993598807418202
aF-0.6056036071426576
aF0.3493169768944977
aF0.16467368476590227
aF-0.6579876033995813
aF0.9647284454775287
aF0.6651071269016111
aF-0.07410462767425008
aF-0.49101495353175784
asg6
(lp11
F-0.946918892083999
aF0.2594059876778716
aF0.63394282007845
aF-0.08034768018535576
aF0.14132762065766813
aF0.3282187700349237
asba(iclasses.member
Member
p12
(dp13
g3
I7
sg4
(lp14
F-0.20863724627574465
aF0.0015343414558792734
aF0.0011402716173325445
aF-0.3405386179886969
aF-0.3721256538597921
aF-0.5439120068413807
aF-0.3312561927252904
aF0.7685564152154478
aF0.5903097156680264
aF-0.23400904458388538
aF-0.4031001147005815
aF0.34496571597388725
aF0.31693730764083305
aF-0.6338057657184952
aF-0.882423120841213
aF0.6343640304197404
aF0.1185914007369211
aF-0.4888157081708968
aF-0.5551563450258725
aF0.03597571277943756
aF0.975591873109475
aF0.2999939891111001
aF-0.7074586486464527
aF0.5889276223703916
aF0.2693889680436339
aF0.3749804023436041
aF0.9887226126929716
aF-0.27032586222542143
aF0.8257551524516407
aF0.7915817193366261
aF-0.6107351585200935
aF0.5134484396958312
aF0.08923461837755253
aF0.6051981810933604
aF0.16991477668389865
aF0.3888107183305727
aF-0.15199386145707705
aF0.3539476906182806
aF0.5205955409689771
aF-0.8288537802320584
aF-0.7697544461239374
aF-0.7174162547662148
aF0.1329840562915705
aF-0.28920765500142687
aF-0.8820243078682082
aF0.5793501533814445
aF0.23389584138978425
aF0.2232314660874548
aF0.3229672254498799
aF-0.21376149643414366
aF-0.769118675623041
aF-0.6240778038703418
aF0.9230408714566714
aF-0.6851933197159548
aF0.3845257224879268
aF-0.47404929053425504
aF-0.2054499910081744
aF-0.7108853351882485
aF-0.7545736176086586
aF-0.7212384127446716
aF-0.3896695798331986
aF0.039689634821587605
aF-0.40789891252105304
aF0.5993052997799411
aF0.5273710662058624
aF-0.5634644911201625
aF0.3508864611906657
aF0.6416539824224226
aF0.2710942956869322
aF0.23943534355102813
aF-0.02126296242281578
aF-0.9184418333608639
aF-0.7242203569267363
aF0.6213354707812269
aF0.47450138605684944
aF-0.8993598807418202
aF-0.6056036071426576
aF0.3493169768944977
aF0.16467368476590227
aF-0.6579876033995813
aF0.9647284454775287
aF0.6651071269016111
aF-0.07410462767425008
aF-0.49101495353175784
asg6
(lp15
F-0.946918892083999
aF0.2594059876778716
aF0.63394282007845
aF-0.08034768018535576
aF0.14132762065766813
aF0.3282187700349237
asba(iclasses.member
Member
p16
(dp17
g3
I6
sg4
(lp18
F-0.20863724627574465
aF0.0015343414558792734
aF0.0011402716173325445
aF-0.3405386179886969
aF-0.3721256538597921
aF-0.5439120068413807
aF-0.3312561927252904
aF0.7685564152154478
aF0.5903097156680264
aF-0.23400904458388538
aF-0.4031001147005815
aF0.34496571597388725
aF0.31693730764083305
aF-0.6338057657184952
aF-0.882423120841213
aF0.6343640304197404
aF0.1185914007369211
aF-0.4888157081708968
aF-0.5551563450258725
aF0.03597571277943756
aF0.975591873109475
aF0.2999939891111001
aF-0.7074586486464527
aF0.5889276223703916
aF0.2693889680436339
aF0.3749804023436041
aF0.9887226126929716
aF-0.27032586222542143
aF0.8257551524516407
aF0.7915817193366261
aF-0.6107351585200935
aF0.5134484396958312
aF0.08923461837755253
aF0.6051981810933604
aF0.16991477668389865
aF0.3888107183305727
aF-0.15199386145707705
aF0.3539476906182806
aF0.5205955409689771
aF-0.8288537802320584
aF-0.7697544461239374
aF-0.7174162547662148
aF0.1329840562915705
aF-0.28920765500142687
aF-0.8820243078682082
aF0.5793501533814445
aF0.23389584138978425
aF0.2232314660874548
aF0.3229672254498799
aF-0.21376149643414366
aF-0.769118675623041
aF-0.6240778038703418
aF0.9230408714566714
aF-0.6851933197159548
aF0.3845257224879268
aF-0.47404929053425504
aF-0.2054499910081744
aF-0.7108853351882485
aF-0.7545736176086586
aF-0.7212384127446716
aF-0.3896695798331986
aF0.039689634821587605
aF-0.40789891252105304
aF0.5993052997799411
aF0.5273710662058624
aF-0.5634644911201625
aF0.3508864611906657
aF0.6416539824224226
aF0.2710942956869322
aF0.23943534355102813
aF-0.02126296242281578
aF-0.9184418333608639
aF-0.7242203569267363
aF0.6213354707812269
aF0.47450138605684944
aF-0.8993598807418202
aF-0.6056036071426576
aF0.3493169768944977
aF0.16467368476590227
aF-0.6579876033995813
aF0.9647284454775287
aF0.6651071269016111
aF-0.07410462767425008
aF-0.49101495353175784
asg6
(lp19
F-0.946918892083999
aF0.2594059876778716
aF0.63394282007845
aF-0.08034768018535576
aF0.14132762065766813
aF0.3282187700349237
asba(iclasses.member
Member
p20
(dp21
g3
I6
sg4
(lp22
F-0.20863724627574465
aF0.0015343414558792734
aF0.0011402716173325445
aF-0.3405386179886969
aF-0.3721256538597921
aF-0.5439120068413807
aF-0.3312561927252904
aF0.7685564152154478
aF0.5903097156680264
aF-0.23400904458388538
aF-0.4031001147005815
aF0.34496571597388725
aF0.31693730764083305
aF-0.6338057657184952
aF-0.882423120841213
aF0.6343640304197404
aF0.1185914007369211
aF-0.4888157081708968
aF-0.5551563450258725
aF0.03597571277943756
aF0.975591873109475
aF0.2999939891111001
aF-0.7074586486464527
aF0.5889276223703916
aF0.2693889680436339
aF0.3749804023436041
aF0.9887226126929716
aF-0.27032586222542143
aF0.8257551524516407
aF0.7915817193366261
aF-0.6107351585200935
aF0.5134484396958312
aF0.08923461837755253
aF0.6051981810933604
aF0.16991477668389865
aF0.3888107183305727
aF-0.15199386145707705
aF0.3539476906182806
aF0.5205955409689771
aF-0.8288537802320584
aF-0.7697544461239374
aF-0.7174162547662148
aF0.1329840562915705
aF-0.28920765500142687
aF-0.8820243078682082
aF0.5793501533814445
aF0.23389584138978425
aF0.2232314660874548
aF0.3229672254498799
aF-0.21376149643414366
aF-0.769118675623041
aF-0.6240778038703418
aF0.9230408714566714
aF-0.6851933197159548
aF0.3845257224879268
aF-0.47404929053425504
aF-0.2054499910081744
aF-0.7108853351882485
aF-0.7545736176086586
aF-0.7212384127446716
aF-0.3896695798331986
aF0.039689634821587605
aF-0.40789891252105304
aF0.5993052997799411
aF0.5273710662058624
aF-0.5634644911201625
aF0.3508864611906657
aF0.6416539824224226
aF0.2710942956869322
aF0.23943534355102813
aF-0.02126296242281578
aF-0.9184418333608639
aF-0.7242203569267363
aF0.6213354707812269
aF0.47450138605684944
aF-0.8993598807418202
aF-0.6056036071426576
aF0.3493169768944977
aF0.16467368476590227
aF-0.6579876033995813
aF0.9647284454775287
aF0.6651071269016111
aF-0.07410462767425008
aF-0.49101495353175784
asg6
(lp23
F-0.946918892083999
aF0.2594059876778716
aF0.63394282007845
aF-0.08034768018535576
aF0.14132762065766813
aF0.3282187700349237
asba(iclasses.member
Member
p24
(dp25
g3
I5
sg4
(lp26
F-0.20863724627574465
aF0.0015343414558792734
aF0.0011402716173325445
aF-0.3405386179886969
aF-0.3721256538597921
aF-0.5439120068413807
aF-0.3312561927252904
aF0.7685564152154478
aF0.5903097156680264
aF-0.23400904458388538
aF-0.4031001147005815
aF0.34496571597388725
aF0.31693730764083305
aF-0.6338057657184952
aF-0.882423120841213
aF0.6343640304197404
aF0.1185914007369211
aF-0.4888157081708968
aF-0.5551563450258725
aF0.03597571277943756
aF0.975591873109475
aF0.2999939891111001
aF-0.7074586486464527
aF0.5889276223703916
aF0.2693889680436339
aF0.3749804023436041
aF0.9887226126929716
aF-0.27032586222542143
aF0.8257551524516407
aF0.7915817193366261
aF-0.6107351585200935
aF0.5134484396958312
aF0.08923461837755253
aF0.6051981810933604
aF0.16991477668389865
aF0.3888107183305727
aF-0.15199386145707705
aF0.3539476906182806
aF0.5205955409689771
aF-0.8288537802320584
aF-0.7697544461239374
aF-0.7174162547662148
aF0.1329840562915705
aF-0.28920765500142687
aF-0.8820243078682082
aF0.5793501533814445
aF0.23389584138978425
aF0.2232314660874548
aF0.3229672254498799
aF-0.21376149643414366
aF-0.769118675623041
aF-0.6240778038703418
aF0.9230408714566714
aF-0.6851933197159548
aF0.3845257224879268
aF-0.47404929053425504
aF-0.2054499910081744
aF-0.7108853351882485
aF-0.7545736176086586
aF-0.7212384127446716
aF-0.3896695798331986
aF0.039689634821587605
aF-0.40789891252105304
aF0.5993052997799411
aF0.5273710662058624
aF-0.5634644911201625
aF0.3508864611906657
aF0.6416539824224226
aF0.2710942956869322
aF0.23943534355102813
aF-0.02126296242281578
aF-0.9184418333608639
aF-0.7242203569267363
aF0.6213354707812269
aF0.47450138605684944
aF-0.8993598807418202
aF-0.6056036071426576
aF0.3493169768944977
aF0.16467368476590227
aF-0.6579876033995813
aF0.9647284454775287
aF0.6651071269016111
aF-0.07410462767425008
aF-0.49101495353175784
asg6
(lp27
F-0.946918892083999
aF0.2594059876778716
aF0.63394282007845
aF-0.08034768018535576
aF0.14132762065766813
aF0.3282187700349237
asba.