(lp0
(iclasses.member
Member
p1
(dp2
S'fitness'
p3
I11
sS'value'
p4
(lp5
F0.9992926251162486
aF-0.07751200415270865
aF0.1794186534117168
aF0.6992751673667892
aF0.4485973820348341
aF-0.5240197265825515
aF0.5641831399126567
aF-0.34014667122688524
aF-0.01950414578065951
aF0.7303529331735596
aF-0.09223504683549666
aF0.8728922820409295
aF0.3440547205633091
aF-0.3205939115475407
aF-0.4660545834912131
aF-0.033471736681321085
aF0.5399483900181394
aF0.23116381504609418
aF-0.47141204628367683
aF0.25916910514670377
aF-0.04290264475106276
aF-0.2998246891418359
aF0.20900140875689321
aF0.7287684292473926
aF0.32393112571711224
aF-0.7526858176089368
aF-0.9470446831260204
aF-0.9054873247583735
aF0.6117652945237579
aF-0.8161670730410224
aF0.7043831340637114
aF0.4772858890754954
aF-0.455664062443216
aF0.22073771681225351
aF0.43621204665271907
aF0.11642207627880152
aF-0.4243842602710257
aF-0.6879419354565268
aF-0.7404209142852896
aF-0.7450194155062455
aF0.40289265429608356
aF0.7884682316301705
aF0.7659283829301902
aF0.45385587532877114
aF0.05235666834532471
aF0.20317273124281532
aF-0.2593892375940441
aF-0.8618195573229304
aF0.02975247492341282
aF-0.005962193603022081
aF0.879136920315102
aF-0.7319799148140671
aF-0.47007336952028367
aF-0.0929547858130293
aF-0.7678204234003205
aF-0.10447543741028831
aF-0.5986810737687105
aF-0.7480320084884016
aF0.38564241718912595
aF0.30677222148412686
aF-0.616639917948417
aF-0.9387593949309785
aF-0.4941119881537004
aF0.029526441998592556
aF-0.8243601123741466
aF0.08716672245891965
aF0.056691875811542
aF0.016103260178046197
aF-0.8665023831856189
aF0.5667931515309261
aF-0.5377629954844549
aF0.9661399692734549
aF0.9213223565335968
aF-0.5446667677907258
aF0.24986778316051095
aF-0.6261830288502488
aF0.5381268154617382
aF-0.7433110712285791
aF-0.2684547395650365
aF-0.7955159373799461
aF-0.4009264557065775
aF0.23387856864542766
aF-0.4085193823369486
aF0.2697329918055491
asS'wave'
p6
(lp7
F0.028896408819750752
aF-0.9110444183822335
aF0.06936471768678154
aF-0.03287315626145326
aF0.0043763545827819605
aF-0.45422064729834033
asba(iclasses.member
Member
p8
(dp9
g3
I9
sg4
(lp10
F0.9992926251162486
aF-0.07751200415270865
aF0.1794186534117168
aF0.6992751673667892
aF0.4485973820348341
aF-0.5240197265825515
aF0.5641831399126567
aF-0.34014667122688524
aF-0.01950414578065951
aF0.7303529331735596
aF-0.09223504683549666
aF0.8728922820409295
aF0.3440547205633091
aF-0.3205939115475407
aF-0.4660545834912131
aF-0.033471736681321085
aF0.5399483900181394
aF0.23116381504609418
aF-0.47141204628367683
aF0.25916910514670377
aF-0.04290264475106276
aF-0.2998246891418359
aF0.20900140875689321
aF0.7287684292473926
aF0.32393112571711224
aF-0.7526858176089368
aF-0.9470446831260204
aF-0.9054873247583735
aF0.6117652945237579
aF-0.8161670730410224
aF0.7043831340637114
aF0.4772858890754954
aF-0.455664062443216
aF0.22073771681225351
aF0.43621204665271907
aF0.11642207627880152
aF-0.4243842602710257
aF-0.6879419354565268
aF-0.7404209142852896
aF-0.7450194155062455
aF0.40289265429608356
aF0.7884682316301705
aF0.7659283829301902
aF0.45385587532877114
aF0.05235666834532471
aF0.20317273124281532
aF-0.2593892375940441
aF-0.8618195573229304
aF0.02975247492341282
aF-0.005962193603022081
aF0.879136920315102
aF-0.7319799148140671
aF-0.47007336952028367
aF-0.0929547858130293
aF-0.7678204234003205
aF-0.10447543741028831
aF-0.5986810737687105
aF-0.7480320084884016
aF0.38564241718912595
aF0.30677222148412686
aF-0.616639917948417
aF-0.9387593949309785
aF-0.4941119881537004
aF0.029526441998592556
aF-0.8243601123741466
aF0.08716672245891965
aF0.056691875811542
aF0.016103260178046197
aF-0.8665023831856189
aF0.5667931515309261
aF-0.5377629954844549
aF0.9661399692734549
aF0.9213223565335968
aF-0.5446667677907258
aF0.24986778316051095
aF-0.6261830288502488
aF0.5381268154617382
aF-0.7433110712285791
aF-0.2684547395650365
aF-0.7955159373799461
aF-0.4009264557065775
aF0.23387856864542766
aF-0.4085193823369486
aF0.2697329918055491
asg6
(lp11
F0.028896408819750752
aF-0.9110444183822335
aF0.06936471768678154
aF-0.03287315626145326
aF0.0043763545827819605
aF-0.45422064729834033
asba(iclasses.member
Member
p12
(dp13
g3
I9
sg4
(lp14
F0.9771529577593335
aF-0.12906589208586727
aF0.1794186534117168
aF0.6992751673667892
aF0.4485973820348341
aF-0.5240197265825515
aF0.5637082772388592
aF-0.34014667122688524
aF-0.01950414578065951
aF0.7000537836785098
aF-0.09223504683549666
aF0.9012817232486465
aF0.3440547205633091
aF-0.38476670471589003
aF-0.469715066624798
aF-0.033471736681321085
aF0.5898636078074624
aF0.31748631749428113
aF-0.5166626322906483
aF0.25916910514670377
aF-0.07078321910834132
aF-0.31581218347061557
aF0.16591723107775674
aF0.706967644882757
aF0.23799758733457604
aF-0.7145519111171875
aF-0.9470446831260204
aF-0.9054873247583735
aF0.6783961111255368
aF-0.8577534158761879
aF0.7587564084313358
aF0.4772858890754954
aF-0.4594911631469514
aF0.16882531967952882
aF0.43621204665271907
aF0.11642207627880152
aF-0.32928683284416127
aF-0.6879419354565268
aF-0.7404209142852896
aF-0.7450194155062455
aF0.40289265429608356
aF0.7884682316301705
aF0.7659283829301902
aF0.45385587532877114
aF0.05235666834532471
aF0.2574611489711046
aF-0.2593892375940441
aF-0.8618195573229304
aF0.09214742858802949
aF-0.005962193603022081
aF0.879136920315102
aF-0.8303984725528569
aF-0.47007336952028367
aF-0.0929547858130293
aF-0.7170196575346375
aF-0.10447543741028831
aF-0.5986810737687105
aF-0.840976457356748
aF0.3778731648514263
aF0.30677222148412686
aF-0.543512366884344
aF-0.9387593949309785
aF-0.5572020893557278
aF0.016922552931297713
aF-0.9201839816245596
aF0.08716672245891965
aF0.07018324837617909
aF0.04716152541022989
aF-0.9349213210832228
aF0.6295812174612743
aF-0.5676563944952128
aF0.9586776579777719
aF0.9213223565335968
aF-0.5917471165775458
aF0.24986778316051095
aF-0.6261830288502488
aF0.5626178227131869
aF-0.7219032380867956
aF-0.34074398127073857
aF-0.8766305851026525
aF-0.4828042219094406
aF0.23387856864542766
aF-0.3733708837284618
aF0.23170124254852792
asg6
(lp15
F0.028896408819750752
aF-0.9889266153158454
aF0.06936471768678154
aF-0.03287315626145326
aF0.0043763545827819605
aF-0.36804561317740636
asba(iclasses.member
Member
p16
(dp17
g3
I9
sg4
(lp18
F0.9992926251162486
aF-0.07751200415270865
aF0.1794186534117168
aF0.6992751673667892
aF0.4485973820348341
aF-0.5240197265825515
aF0.5641831399126567
aF-0.34014667122688524
aF-0.01950414578065951
aF0.7303529331735596
aF-0.09223504683549666
aF0.8728922820409295
aF0.3440547205633091
aF-0.3205939115475407
aF-0.4660545834912131
aF-0.033471736681321085
aF0.5399483900181394
aF0.23116381504609418
aF-0.47141204628367683
aF0.25916910514670377
aF-0.04290264475106276
aF-0.2998246891418359
aF0.20900140875689321
aF0.7287684292473926
aF0.32393112571711224
aF-0.7526858176089368
aF-0.9470446831260204
aF-0.9054873247583735
aF0.6117652945237579
aF-0.8161670730410224
aF0.7043831340637114
aF0.4772858890754954
aF-0.455664062443216
aF0.22073771681225351
aF0.43621204665271907
aF0.11642207627880152
aF-0.4243842602710257
aF-0.6879419354565268
aF-0.7404209142852896
aF-0.7450194155062455
aF0.40289265429608356
aF0.7884682316301705
aF0.7659283829301902
aF0.45385587532877114
aF0.05235666834532471
aF0.20317273124281532
aF-0.2593892375940441
aF-0.8618195573229304
aF0.02975247492341282
aF-0.005962193603022081
aF0.879136920315102
aF-0.7319799148140671
aF-0.47007336952028367
aF-0.0929547858130293
aF-0.7678204234003205
aF-0.10447543741028831
aF-0.5986810737687105
aF-0.7480320084884016
aF0.38564241718912595
aF0.30677222148412686
aF-0.616639917948417
aF-0.9387593949309785
aF-0.4941119881537004
aF0.029526441998592556
aF-0.8243601123741466
aF0.08716672245891965
aF0.056691875811542
aF0.016103260178046197
aF-0.8665023831856189
aF0.5667931515309261
aF-0.5377629954844549
aF0.9661399692734549
aF0.9213223565335968
aF-0.5446667677907258
aF0.24986778316051095
aF-0.6261830288502488
aF0.5381268154617382
aF-0.7433110712285791
aF-0.2684547395650365
aF-0.7955159373799461
aF-0.4009264557065775
aF0.23387856864542766
aF-0.4085193823369486
aF0.2697329918055491
asg6
(lp19
F0.028896408819750752
aF-0.9110444183822335
aF0.06936471768678154
aF-0.03287315626145326
aF0.0043763545827819605
aF-0.45422064729834033
asba(iclasses.member
Member
p20
(dp21
g3
I9
sg4
(lp22
F0.9992926251162486
aF-0.07751200415270865
aF0.1794186534117168
aF0.6992751673667892
aF0.4485973820348341
aF-0.5240197265825515
aF0.5641831399126567
aF-0.34014667122688524
aF-0.01950414578065951
aF0.7303529331735596
aF-0.09223504683549666
aF0.8728922820409295
aF0.3440547205633091
aF-0.3205939115475407
aF-0.4660545834912131
aF-0.033471736681321085
aF0.5399483900181394
aF0.23116381504609418
aF-0.47141204628367683
aF0.25916910514670377
aF-0.04290264475106276
aF-0.2998246891418359
aF0.20900140875689321
aF0.7287684292473926
aF0.32393112571711224
aF-0.7526858176089368
aF-0.9470446831260204
aF-0.9054873247583735
aF0.6117652945237579
aF-0.8161670730410224
aF0.7043831340637114
aF0.4772858890754954
aF-0.455664062443216
aF0.22073771681225351
aF0.43621204665271907
aF0.11642207627880152
aF-0.4243842602710257
aF-0.6879419354565268
aF-0.7404209142852896
aF-0.7450194155062455
aF0.40289265429608356
aF0.7884682316301705
aF0.7659283829301902
aF0.45385587532877114
aF0.05235666834532471
aF0.20317273124281532
aF-0.2593892375940441
aF-0.8618195573229304
aF0.02975247492341282
aF-0.005962193603022081
aF0.879136920315102
aF-0.7319799148140671
aF-0.47007336952028367
aF-0.0929547858130293
aF-0.7678204234003205
aF-0.10447543741028831
aF-0.5986810737687105
aF-0.7480320084884016
aF0.38564241718912595
aF0.30677222148412686
aF-0.616639917948417
aF-0.9387593949309785
aF-0.4941119881537004
aF0.029526441998592556
aF-0.8243601123741466
aF0.08716672245891965
aF0.056691875811542
aF0.016103260178046197
aF-0.8665023831856189
aF0.5667931515309261
aF-0.5377629954844549
aF0.9661399692734549
aF0.9213223565335968
aF-0.5446667677907258
aF0.24986778316051095
aF-0.6261830288502488
aF0.5381268154617382
aF-0.7433110712285791
aF-0.2684547395650365
aF-0.7955159373799461
aF-0.4009264557065775
aF0.23387856864542766
aF-0.4085193823369486
aF0.2697329918055491
asg6
(lp23
F0.028896408819750752
aF-0.9110444183822335
aF0.06936471768678154
aF-0.03287315626145326
aF0.0043763545827819605
aF-0.45422064729834033
asba(iclasses.member
Member
p24
(dp25
g3
I9
sg4
(lp26
F0.9992926251162486
aF-0.07751200415270865
aF0.1794186534117168
aF0.6992751673667892
aF0.4485973820348341
aF-0.5240197265825515
aF0.5641831399126567
aF-0.34014667122688524
aF-0.01950414578065951
aF0.7303529331735596
aF-0.09223504683549666
aF0.8728922820409295
aF0.3440547205633091
aF-0.3205939115475407
aF-0.4660545834912131
aF-0.033471736681321085
aF0.5399483900181394
aF0.23116381504609418
aF-0.47141204628367683
aF0.25916910514670377
aF-0.04290264475106276
aF-0.2998246891418359
aF0.20900140875689321
aF0.7287684292473926
aF0.32393112571711224
aF-0.7526858176089368
aF-0.9470446831260204
aF-0.9054873247583735
aF0.6117652945237579
aF-0.8161670730410224
aF0.7043831340637114
aF0.4772858890754954
aF-0.455664062443216
aF0.22073771681225351
aF0.43621204665271907
aF0.11642207627880152
aF-0.4243842602710257
aF-0.6879419354565268
aF-0.7404209142852896
aF-0.7450194155062455
aF0.40289265429608356
aF0.7884682316301705
aF0.7659283829301902
aF0.45385587532877114
aF0.05235666834532471
aF0.20317273124281532
aF-0.2593892375940441
aF-0.8618195573229304
aF0.02975247492341282
aF-0.005962193603022081
aF0.879136920315102
aF-0.7319799148140671
aF-0.47007336952028367
aF-0.0929547858130293
aF-0.7678204234003205
aF-0.10447543741028831
aF-0.5986810737687105
aF-0.7480320084884016
aF0.38564241718912595
aF0.30677222148412686
aF-0.616639917948417
aF-0.9387593949309785
aF-0.4941119881537004
aF0.029526441998592556
aF-0.8243601123741466
aF0.08716672245891965
aF0.056691875811542
aF0.016103260178046197
aF-0.8665023831856189
aF0.5667931515309261
aF-0.5377629954844549
aF0.9661399692734549
aF0.9213223565335968
aF-0.5446667677907258
aF0.24986778316051095
aF-0.6261830288502488
aF0.5381268154617382
aF-0.7433110712285791
aF-0.2684547395650365
aF-0.7955159373799461
aF-0.4009264557065775
aF0.23387856864542766
aF-0.4085193823369486
aF0.2697329918055491
asg6
(lp27
F0.028896408819750752
aF-0.9110444183822335
aF0.06936471768678154
aF-0.03287315626145326
aF0.0043763545827819605
aF-0.45422064729834033
asba(iclasses.member
Member
p28
(dp29
g3
I9
sg4
(lp30
F0.9992926251162486
aF-0.07751200415270865
aF0.1794186534117168
aF0.6992751673667892
aF0.4485973820348341
aF-0.5240197265825515
aF0.5641831399126567
aF-0.34014667122688524
aF-0.01950414578065951
aF0.7303529331735596
aF-0.09223504683549666
aF0.8728922820409295
aF0.3440547205633091
aF-0.3205939115475407
aF-0.4660545834912131
aF-0.033471736681321085
aF0.5399483900181394
aF0.23116381504609418
aF-0.47141204628367683
aF0.25916910514670377
aF-0.04290264475106276
aF-0.2998246891418359
aF0.20900140875689321
aF0.7287684292473926
aF0.32393112571711224
aF-0.7526858176089368
aF-0.9470446831260204
aF-0.9054873247583735
aF0.6117652945237579
aF-0.8161670730410224
aF0.7043831340637114
aF0.4772858890754954
aF-0.455664062443216
aF0.22073771681225351
aF0.43621204665271907
aF0.11642207627880152
aF-0.4243842602710257
aF-0.6879419354565268
aF-0.7404209142852896
aF-0.7450194155062455
aF0.40289265429608356
aF0.7884682316301705
aF0.7659283829301902
aF0.45385587532877114
aF0.05235666834532471
aF0.20317273124281532
aF-0.2593892375940441
aF-0.8618195573229304
aF0.02975247492341282
aF-0.005962193603022081
aF0.879136920315102
aF-0.7319799148140671
aF-0.47007336952028367
aF-0.0929547858130293
aF-0.7678204234003205
aF-0.10447543741028831
aF-0.5986810737687105
aF-0.7480320084884016
aF0.38564241718912595
aF0.30677222148412686
aF-0.616639917948417
aF-0.9387593949309785
aF-0.4941119881537004
aF0.029526441998592556
aF-0.8243601123741466
aF0.08716672245891965
aF0.056691875811542
aF0.016103260178046197
aF-0.8665023831856189
aF0.5667931515309261
aF-0.5377629954844549
aF0.9661399692734549
aF0.9213223565335968
aF-0.5446667677907258
aF0.24986778316051095
aF-0.6261830288502488
aF0.5381268154617382
aF-0.7433110712285791
aF-0.2684547395650365
aF-0.7955159373799461
aF-0.4009264557065775
aF0.23387856864542766
aF-0.4085193823369486
aF0.2697329918055491
asg6
(lp31
F0.028896408819750752
aF-0.9110444183822335
aF0.06936471768678154
aF-0.03287315626145326
aF0.0043763545827819605
aF-0.45422064729834033
asba(iclasses.member
Member
p32
(dp33
g3
I9
sg4
(lp34
F0.9992926251162486
aF-0.07751200415270865
aF0.1794186534117168
aF0.6992751673667892
aF0.4485973820348341
aF-0.5240197265825515
aF0.5641831399126567
aF-0.34014667122688524
aF-0.01950414578065951
aF0.7303529331735596
aF-0.09223504683549666
aF0.8728922820409295
aF0.3440547205633091
aF-0.3205939115475407
aF-0.4660545834912131
aF-0.033471736681321085
aF0.5399483900181394
aF0.23116381504609418
aF-0.47141204628367683
aF0.25916910514670377
aF-0.04290264475106276
aF-0.2998246891418359
aF0.20900140875689321
aF0.7287684292473926
aF0.32393112571711224
aF-0.7526858176089368
aF-0.9470446831260204
aF-0.9054873247583735
aF0.6117652945237579
aF-0.8161670730410224
aF0.7043831340637114
aF0.4772858890754954
aF-0.455664062443216
aF0.22073771681225351
aF0.43621204665271907
aF0.11642207627880152
aF-0.4243842602710257
aF-0.6879419354565268
aF-0.7404209142852896
aF-0.7450194155062455
aF0.40289265429608356
aF0.7884682316301705
aF0.7659283829301902
aF0.45385587532877114
aF0.05235666834532471
aF0.20317273124281532
aF-0.2593892375940441
aF-0.8618195573229304
aF0.02975247492341282
aF-0.005962193603022081
aF0.879136920315102
aF-0.7319799148140671
aF-0.47007336952028367
aF-0.0929547858130293
aF-0.7678204234003205
aF-0.10447543741028831
aF-0.5986810737687105
aF-0.7480320084884016
aF0.38564241718912595
aF0.30677222148412686
aF-0.616639917948417
aF-0.9387593949309785
aF-0.4941119881537004
aF0.029526441998592556
aF-0.8243601123741466
aF0.08716672245891965
aF0.056691875811542
aF0.016103260178046197
aF-0.8665023831856189
aF0.5667931515309261
aF-0.5377629954844549
aF0.9661399692734549
aF0.9213223565335968
aF-0.5446667677907258
aF0.24986778316051095
aF-0.6261830288502488
aF0.5381268154617382
aF-0.7433110712285791
aF-0.2684547395650365
aF-0.7955159373799461
aF-0.4009264557065775
aF0.23387856864542766
aF-0.4085193823369486
aF0.2697329918055491
asg6
(lp35
F0.028896408819750752
aF-0.9110444183822335
aF0.06936471768678154
aF-0.03287315626145326
aF0.0043763545827819605
aF-0.45422064729834033
asba.